ARM GAS  C:\Users\svcgu\AppData\Local\Temp\cclf0baH.s 			page 1


   1              		.cpu cortex-m4
   2              		.eabi_attribute 27, 1
   3              		.eabi_attribute 28, 1
   4              		.eabi_attribute 20, 1
   5              		.eabi_attribute 21, 1
   6              		.eabi_attribute 23, 3
   7              		.eabi_attribute 24, 1
   8              		.eabi_attribute 25, 1
   9              		.eabi_attribute 26, 1
  10              		.eabi_attribute 30, 1
  11              		.eabi_attribute 34, 1
  12              		.eabi_attribute 18, 4
  13              		.file	"gpio.c"
  14              		.text
  15              	.Ltext0:
  16              		.cfi_sections	.debug_frame
  17              		.section	.text.MX_GPIO_Init,"ax",%progbits
  18              		.align	1
  19              		.global	MX_GPIO_Init
  20              		.syntax unified
  21              		.thumb
  22              		.thumb_func
  23              		.fpu fpv4-sp-d16
  25              	MX_GPIO_Init:
  26              	.LFB124:
  27              		.file 1 "Src/gpio.c"
   1:Src/gpio.c    **** /**
   2:Src/gpio.c    ****   ******************************************************************************
   3:Src/gpio.c    ****   * File Name          : gpio.c
   4:Src/gpio.c    ****   * Description        : This file provides code for the configuration
   5:Src/gpio.c    ****   *                      of all used GPIO pins.
   6:Src/gpio.c    ****   ******************************************************************************
   7:Src/gpio.c    ****   * This notice applies to any and all portions of this file
   8:Src/gpio.c    ****   * that are not between comment pairs USER CODE BEGIN and
   9:Src/gpio.c    ****   * USER CODE END. Other portions of this file, whether 
  10:Src/gpio.c    ****   * inserted by the user or by software development tools
  11:Src/gpio.c    ****   * are owned by their respective copyright owners.
  12:Src/gpio.c    ****   *
  13:Src/gpio.c    ****   * Copyright (c) 2018 STMicroelectronics International N.V. 
  14:Src/gpio.c    ****   * All rights reserved.
  15:Src/gpio.c    ****   *
  16:Src/gpio.c    ****   * Redistribution and use in source and binary forms, with or without 
  17:Src/gpio.c    ****   * modification, are permitted, provided that the following conditions are met:
  18:Src/gpio.c    ****   *
  19:Src/gpio.c    ****   * 1. Redistribution of source code must retain the above copyright notice, 
  20:Src/gpio.c    ****   *    this list of conditions and the following disclaimer.
  21:Src/gpio.c    ****   * 2. Redistributions in binary form must reproduce the above copyright notice,
  22:Src/gpio.c    ****   *    this list of conditions and the following disclaimer in the documentation
  23:Src/gpio.c    ****   *    and/or other materials provided with the distribution.
  24:Src/gpio.c    ****   * 3. Neither the name of STMicroelectronics nor the names of other 
  25:Src/gpio.c    ****   *    contributors to this software may be used to endorse or promote products 
  26:Src/gpio.c    ****   *    derived from this software without specific written permission.
  27:Src/gpio.c    ****   * 4. This software, including modifications and/or derivative works of this 
  28:Src/gpio.c    ****   *    software, must execute solely and exclusively on microcontroller or
  29:Src/gpio.c    ****   *    microprocessor devices manufactured by or for STMicroelectronics.
  30:Src/gpio.c    ****   * 5. Redistribution and use of this software other than as permitted under 
  31:Src/gpio.c    ****   *    this license is void and will automatically terminate your rights under 
ARM GAS  C:\Users\svcgu\AppData\Local\Temp\cclf0baH.s 			page 2


  32:Src/gpio.c    ****   *    this license. 
  33:Src/gpio.c    ****   *
  34:Src/gpio.c    ****   * THIS SOFTWARE IS PROVIDED BY STMICROELECTRONICS AND CONTRIBUTORS "AS IS" 
  35:Src/gpio.c    ****   * AND ANY EXPRESS, IMPLIED OR STATUTORY WARRANTIES, INCLUDING, BUT NOT 
  36:Src/gpio.c    ****   * LIMITED TO, THE IMPLIED WARRANTIES OF MERCHANTABILITY, FITNESS FOR A 
  37:Src/gpio.c    ****   * PARTICULAR PURPOSE AND NON-INFRINGEMENT OF THIRD PARTY INTELLECTUAL PROPERTY
  38:Src/gpio.c    ****   * RIGHTS ARE DISCLAIMED TO THE FULLEST EXTENT PERMITTED BY LAW. IN NO EVENT 
  39:Src/gpio.c    ****   * SHALL STMICROELECTRONICS OR CONTRIBUTORS BE LIABLE FOR ANY DIRECT, INDIRECT,
  40:Src/gpio.c    ****   * INCIDENTAL, SPECIAL, EXEMPLARY, OR CONSEQUENTIAL DAMAGES (INCLUDING, BUT NOT
  41:Src/gpio.c    ****   * LIMITED TO, PROCUREMENT OF SUBSTITUTE GOODS OR SERVICES; LOSS OF USE, DATA, 
  42:Src/gpio.c    ****   * OR PROFITS; OR BUSINESS INTERRUPTION) HOWEVER CAUSED AND ON ANY THEORY OF 
  43:Src/gpio.c    ****   * LIABILITY, WHETHER IN CONTRACT, STRICT LIABILITY, OR TORT (INCLUDING 
  44:Src/gpio.c    ****   * NEGLIGENCE OR OTHERWISE) ARISING IN ANY WAY OUT OF THE USE OF THIS SOFTWARE,
  45:Src/gpio.c    ****   * EVEN IF ADVISED OF THE POSSIBILITY OF SUCH DAMAGE.
  46:Src/gpio.c    ****   *
  47:Src/gpio.c    ****   ******************************************************************************
  48:Src/gpio.c    ****   */
  49:Src/gpio.c    **** 
  50:Src/gpio.c    **** /* Includes ------------------------------------------------------------------*/
  51:Src/gpio.c    **** #include "gpio.h"
  52:Src/gpio.c    **** /* USER CODE BEGIN 0 */
  53:Src/gpio.c    **** 
  54:Src/gpio.c    **** /* USER CODE END 0 */
  55:Src/gpio.c    **** 
  56:Src/gpio.c    **** /*----------------------------------------------------------------------------*/
  57:Src/gpio.c    **** /* Configure GPIO                                                             */
  58:Src/gpio.c    **** /*----------------------------------------------------------------------------*/
  59:Src/gpio.c    **** /* USER CODE BEGIN 1 */
  60:Src/gpio.c    **** 
  61:Src/gpio.c    **** /* USER CODE END 1 */
  62:Src/gpio.c    **** 
  63:Src/gpio.c    **** /** Configure pins as 
  64:Src/gpio.c    ****         * Analog 
  65:Src/gpio.c    ****         * Input 
  66:Src/gpio.c    ****         * Output
  67:Src/gpio.c    ****         * EVENT_OUT
  68:Src/gpio.c    ****         * EXTI
  69:Src/gpio.c    **** */
  70:Src/gpio.c    **** void MX_GPIO_Init(void)
  71:Src/gpio.c    **** {
  28              		.loc 1 71 0
  29              		.cfi_startproc
  30              		@ args = 0, pretend = 0, frame = 48
  31              		@ frame_needed = 0, uses_anonymous_args = 0
  32 0000 F0B5     		push	{r4, r5, r6, r7, lr}
  33              	.LCFI0:
  34              		.cfi_def_cfa_offset 20
  35              		.cfi_offset 4, -20
  36              		.cfi_offset 5, -16
  37              		.cfi_offset 6, -12
  38              		.cfi_offset 7, -8
  39              		.cfi_offset 14, -4
  40 0002 8DB0     		sub	sp, sp, #52
  41              	.LCFI1:
  42              		.cfi_def_cfa_offset 72
  43              	.LBB2:
  72:Src/gpio.c    **** 
ARM GAS  C:\Users\svcgu\AppData\Local\Temp\cclf0baH.s 			page 3


  73:Src/gpio.c    ****   GPIO_InitTypeDef GPIO_InitStruct;
  74:Src/gpio.c    **** 
  75:Src/gpio.c    ****   /* GPIO Ports Clock Enable */
  76:Src/gpio.c    ****   __HAL_RCC_GPIOC_CLK_ENABLE();
  44              		.loc 1 76 0
  45 0004 0024     		movs	r4, #0
  46 0006 0194     		str	r4, [sp, #4]
  47 0008 384B     		ldr	r3, .L3
  48 000a 1A6B     		ldr	r2, [r3, #48]
  49 000c 42F00402 		orr	r2, r2, #4
  50 0010 1A63     		str	r2, [r3, #48]
  51 0012 1A6B     		ldr	r2, [r3, #48]
  52 0014 02F00402 		and	r2, r2, #4
  53 0018 0192     		str	r2, [sp, #4]
  54 001a 019A     		ldr	r2, [sp, #4]
  55              	.LBE2:
  56              	.LBB3:
  77:Src/gpio.c    ****   __HAL_RCC_GPIOH_CLK_ENABLE();
  57              		.loc 1 77 0
  58 001c 0294     		str	r4, [sp, #8]
  59 001e 1A6B     		ldr	r2, [r3, #48]
  60 0020 42F08002 		orr	r2, r2, #128
  61 0024 1A63     		str	r2, [r3, #48]
  62 0026 1A6B     		ldr	r2, [r3, #48]
  63 0028 02F08002 		and	r2, r2, #128
  64 002c 0292     		str	r2, [sp, #8]
  65 002e 029A     		ldr	r2, [sp, #8]
  66              	.LBE3:
  67              	.LBB4:
  78:Src/gpio.c    ****   __HAL_RCC_GPIOA_CLK_ENABLE();
  68              		.loc 1 78 0
  69 0030 0394     		str	r4, [sp, #12]
  70 0032 1A6B     		ldr	r2, [r3, #48]
  71 0034 42F00102 		orr	r2, r2, #1
  72 0038 1A63     		str	r2, [r3, #48]
  73 003a 1A6B     		ldr	r2, [r3, #48]
  74 003c 02F00102 		and	r2, r2, #1
  75 0040 0392     		str	r2, [sp, #12]
  76 0042 039A     		ldr	r2, [sp, #12]
  77              	.LBE4:
  78              	.LBB5:
  79:Src/gpio.c    ****   __HAL_RCC_GPIOE_CLK_ENABLE();
  79              		.loc 1 79 0
  80 0044 0494     		str	r4, [sp, #16]
  81 0046 1A6B     		ldr	r2, [r3, #48]
  82 0048 42F01002 		orr	r2, r2, #16
  83 004c 1A63     		str	r2, [r3, #48]
  84 004e 1A6B     		ldr	r2, [r3, #48]
  85 0050 02F01002 		and	r2, r2, #16
  86 0054 0492     		str	r2, [sp, #16]
  87 0056 049A     		ldr	r2, [sp, #16]
  88              	.LBE5:
  89              	.LBB6:
  80:Src/gpio.c    ****   __HAL_RCC_GPIOB_CLK_ENABLE();
  90              		.loc 1 80 0
  91 0058 0594     		str	r4, [sp, #20]
  92 005a 1A6B     		ldr	r2, [r3, #48]
ARM GAS  C:\Users\svcgu\AppData\Local\Temp\cclf0baH.s 			page 4


  93 005c 42F00202 		orr	r2, r2, #2
  94 0060 1A63     		str	r2, [r3, #48]
  95 0062 1A6B     		ldr	r2, [r3, #48]
  96 0064 02F00202 		and	r2, r2, #2
  97 0068 0592     		str	r2, [sp, #20]
  98 006a 059A     		ldr	r2, [sp, #20]
  99              	.LBE6:
 100              	.LBB7:
  81:Src/gpio.c    ****   __HAL_RCC_GPIOD_CLK_ENABLE();
 101              		.loc 1 81 0
 102 006c 0694     		str	r4, [sp, #24]
 103 006e 1A6B     		ldr	r2, [r3, #48]
 104 0070 42F00802 		orr	r2, r2, #8
 105 0074 1A63     		str	r2, [r3, #48]
 106 0076 1B6B     		ldr	r3, [r3, #48]
 107 0078 03F00803 		and	r3, r3, #8
 108 007c 0693     		str	r3, [sp, #24]
 109 007e 069B     		ldr	r3, [sp, #24]
 110              	.LBE7:
  82:Src/gpio.c    **** 
  83:Src/gpio.c    ****   /*Configure GPIO pin Output Level */
  84:Src/gpio.c    ****   HAL_GPIO_WritePin(GPIOE, LED_1_Pin|LED_2_Pin, GPIO_PIN_RESET);
 111              		.loc 1 84 0
 112 0080 1B4D     		ldr	r5, .L3+4
 113 0082 2246     		mov	r2, r4
 114 0084 4FF41041 		mov	r1, #36864
 115 0088 2846     		mov	r0, r5
 116 008a FFF7FEFF 		bl	HAL_GPIO_WritePin
 117              	.LVL0:
  85:Src/gpio.c    **** 
  86:Src/gpio.c    ****   /*Configure GPIO pin Output Level */
  87:Src/gpio.c    ****   HAL_GPIO_WritePin(GPIOB, RELAY_2_Pin|RELAY_1_Pin, GPIO_PIN_RESET);
 118              		.loc 1 87 0
 119 008e 194F     		ldr	r7, .L3+8
 120 0090 2246     		mov	r2, r4
 121 0092 4FF44071 		mov	r1, #768
 122 0096 3846     		mov	r0, r7
 123 0098 FFF7FEFF 		bl	HAL_GPIO_WritePin
 124              	.LVL1:
  88:Src/gpio.c    **** 
  89:Src/gpio.c    ****   /*Configure GPIO pins : PAPin PAPin */
  90:Src/gpio.c    ****   GPIO_InitStruct.Pin = SDIO_CD_Pin|BUTTON_2_Pin;
 125              		.loc 1 90 0
 126 009c 40F20443 		movw	r3, #1028
 127 00a0 0793     		str	r3, [sp, #28]
  91:Src/gpio.c    ****   GPIO_InitStruct.Mode = GPIO_MODE_INPUT;
 128              		.loc 1 91 0
 129 00a2 0894     		str	r4, [sp, #32]
  92:Src/gpio.c    ****   GPIO_InitStruct.Pull = GPIO_NOPULL;
 130              		.loc 1 92 0
 131 00a4 0994     		str	r4, [sp, #36]
  93:Src/gpio.c    ****   HAL_GPIO_Init(GPIOA, &GPIO_InitStruct);
 132              		.loc 1 93 0
 133 00a6 07A9     		add	r1, sp, #28
 134 00a8 1348     		ldr	r0, .L3+12
 135 00aa FFF7FEFF 		bl	HAL_GPIO_Init
 136              	.LVL2:
ARM GAS  C:\Users\svcgu\AppData\Local\Temp\cclf0baH.s 			page 5


  94:Src/gpio.c    **** 
  95:Src/gpio.c    ****   /*Configure GPIO pins : PEPin PEPin */
  96:Src/gpio.c    ****   GPIO_InitStruct.Pin = LED_1_Pin|LED_2_Pin;
 137              		.loc 1 96 0
 138 00ae 4FF41043 		mov	r3, #36864
 139 00b2 0793     		str	r3, [sp, #28]
  97:Src/gpio.c    ****   GPIO_InitStruct.Mode = GPIO_MODE_OUTPUT_PP;
 140              		.loc 1 97 0
 141 00b4 0126     		movs	r6, #1
 142 00b6 0896     		str	r6, [sp, #32]
  98:Src/gpio.c    ****   GPIO_InitStruct.Pull = GPIO_NOPULL;
 143              		.loc 1 98 0
 144 00b8 0994     		str	r4, [sp, #36]
  99:Src/gpio.c    ****   GPIO_InitStruct.Speed = GPIO_SPEED_FREQ_LOW;
 145              		.loc 1 99 0
 146 00ba 0A94     		str	r4, [sp, #40]
 100:Src/gpio.c    ****   HAL_GPIO_Init(GPIOE, &GPIO_InitStruct);
 147              		.loc 1 100 0
 148 00bc 07A9     		add	r1, sp, #28
 149 00be 2846     		mov	r0, r5
 150 00c0 FFF7FEFF 		bl	HAL_GPIO_Init
 151              	.LVL3:
 101:Src/gpio.c    **** 
 102:Src/gpio.c    ****   /*Configure GPIO pins : PBPin PBPin */
 103:Src/gpio.c    ****   GPIO_InitStruct.Pin = RELAY_2_Pin|RELAY_1_Pin;
 152              		.loc 1 103 0
 153 00c4 4FF44073 		mov	r3, #768
 154 00c8 0793     		str	r3, [sp, #28]
 104:Src/gpio.c    ****   GPIO_InitStruct.Mode = GPIO_MODE_OUTPUT_PP;
 155              		.loc 1 104 0
 156 00ca 0896     		str	r6, [sp, #32]
 105:Src/gpio.c    ****   GPIO_InitStruct.Pull = GPIO_NOPULL;
 157              		.loc 1 105 0
 158 00cc 0994     		str	r4, [sp, #36]
 106:Src/gpio.c    ****   GPIO_InitStruct.Speed = GPIO_SPEED_FREQ_LOW;
 159              		.loc 1 106 0
 160 00ce 0A94     		str	r4, [sp, #40]
 107:Src/gpio.c    ****   HAL_GPIO_Init(GPIOB, &GPIO_InitStruct);
 161              		.loc 1 107 0
 162 00d0 07A9     		add	r1, sp, #28
 163 00d2 3846     		mov	r0, r7
 164 00d4 FFF7FEFF 		bl	HAL_GPIO_Init
 165              	.LVL4:
 108:Src/gpio.c    **** 
 109:Src/gpio.c    ****   /*Configure GPIO pin : PtPin */
 110:Src/gpio.c    ****   GPIO_InitStruct.Pin = BUTTON_1_Pin;
 166              		.loc 1 110 0
 167 00d8 0796     		str	r6, [sp, #28]
 111:Src/gpio.c    ****   GPIO_InitStruct.Mode = GPIO_MODE_INPUT;
 168              		.loc 1 111 0
 169 00da 0894     		str	r4, [sp, #32]
 112:Src/gpio.c    ****   GPIO_InitStruct.Pull = GPIO_NOPULL;
 170              		.loc 1 112 0
 171 00dc 0994     		str	r4, [sp, #36]
 113:Src/gpio.c    ****   HAL_GPIO_Init(BUTTON_1_GPIO_Port, &GPIO_InitStruct);
 172              		.loc 1 113 0
 173 00de 07A9     		add	r1, sp, #28
ARM GAS  C:\Users\svcgu\AppData\Local\Temp\cclf0baH.s 			page 6


 174 00e0 2846     		mov	r0, r5
 175 00e2 FFF7FEFF 		bl	HAL_GPIO_Init
 176              	.LVL5:
 114:Src/gpio.c    **** 
 115:Src/gpio.c    **** }
 177              		.loc 1 115 0
 178 00e6 0DB0     		add	sp, sp, #52
 179              	.LCFI2:
 180              		.cfi_def_cfa_offset 20
 181              		@ sp needed
 182 00e8 F0BD     		pop	{r4, r5, r6, r7, pc}
 183              	.L4:
 184 00ea 00BF     		.align	2
 185              	.L3:
 186 00ec 00380240 		.word	1073887232
 187 00f0 00100240 		.word	1073876992
 188 00f4 00040240 		.word	1073873920
 189 00f8 00000240 		.word	1073872896
 190              		.cfi_endproc
 191              	.LFE124:
 193              		.text
 194              	.Letext0:
 195              		.file 2 "c:\\program files (x86)\\gnu tools arm embedded\\6 2017-q2-update\\arm-none-eabi\\include
 196              		.file 3 "c:\\program files (x86)\\gnu tools arm embedded\\6 2017-q2-update\\arm-none-eabi\\include
 197              		.file 4 "Drivers/CMSIS/Include/core_cm4.h"
 198              		.file 5 "Drivers/CMSIS/Device/ST/STM32F4xx/Include/system_stm32f4xx.h"
 199              		.file 6 "Drivers/CMSIS/Device/ST/STM32F4xx/Include/stm32f407xx.h"
 200              		.file 7 "c:\\program files (x86)\\gnu tools arm embedded\\6 2017-q2-update\\arm-none-eabi\\include
 201              		.file 8 "c:\\program files (x86)\\gnu tools arm embedded\\6 2017-q2-update\\arm-none-eabi\\include
 202              		.file 9 "c:\\program files (x86)\\gnu tools arm embedded\\6 2017-q2-update\\lib\\gcc\\arm-none-eab
 203              		.file 10 "c:\\program files (x86)\\gnu tools arm embedded\\6 2017-q2-update\\arm-none-eabi\\includ
 204              		.file 11 "Drivers/STM32F4xx_HAL_Driver/Inc/stm32f4xx_hal_gpio.h"
ARM GAS  C:\Users\svcgu\AppData\Local\Temp\cclf0baH.s 			page 7

