ARM GAS  C:\Users\svcgu\AppData\Local\Temp\cc34O2Et.s 			page 1


   1              		.cpu cortex-m4
   2              		.eabi_attribute 27, 1
   3              		.eabi_attribute 28, 1
   4              		.eabi_attribute 20, 1
   5              		.eabi_attribute 21, 1
   6              		.eabi_attribute 23, 3
   7              		.eabi_attribute 24, 1
   8              		.eabi_attribute 25, 1
   9              		.eabi_attribute 26, 1
  10              		.eabi_attribute 30, 1
  11              		.eabi_attribute 34, 1
  12              		.eabi_attribute 18, 4
  13              		.file	"i2c.c"
  14              		.text
  15              	.Ltext0:
  16              		.cfi_sections	.debug_frame
  17              		.section	.text.MX_I2C2_Init,"ax",%progbits
  18              		.align	1
  19              		.global	MX_I2C2_Init
  20              		.syntax unified
  21              		.thumb
  22              		.thumb_func
  23              		.fpu fpv4-sp-d16
  25              	MX_I2C2_Init:
  26              	.LFB124:
  27              		.file 1 "Src/i2c.c"
   1:Src/i2c.c     **** /**
   2:Src/i2c.c     ****   ******************************************************************************
   3:Src/i2c.c     ****   * File Name          : I2C.c
   4:Src/i2c.c     ****   * Description        : This file provides code for the configuration
   5:Src/i2c.c     ****   *                      of the I2C instances.
   6:Src/i2c.c     ****   ******************************************************************************
   7:Src/i2c.c     ****   * This notice applies to any and all portions of this file
   8:Src/i2c.c     ****   * that are not between comment pairs USER CODE BEGIN and
   9:Src/i2c.c     ****   * USER CODE END. Other portions of this file, whether 
  10:Src/i2c.c     ****   * inserted by the user or by software development tools
  11:Src/i2c.c     ****   * are owned by their respective copyright owners.
  12:Src/i2c.c     ****   *
  13:Src/i2c.c     ****   * Copyright (c) 2018 STMicroelectronics International N.V. 
  14:Src/i2c.c     ****   * All rights reserved.
  15:Src/i2c.c     ****   *
  16:Src/i2c.c     ****   * Redistribution and use in source and binary forms, with or without 
  17:Src/i2c.c     ****   * modification, are permitted, provided that the following conditions are met:
  18:Src/i2c.c     ****   *
  19:Src/i2c.c     ****   * 1. Redistribution of source code must retain the above copyright notice, 
  20:Src/i2c.c     ****   *    this list of conditions and the following disclaimer.
  21:Src/i2c.c     ****   * 2. Redistributions in binary form must reproduce the above copyright notice,
  22:Src/i2c.c     ****   *    this list of conditions and the following disclaimer in the documentation
  23:Src/i2c.c     ****   *    and/or other materials provided with the distribution.
  24:Src/i2c.c     ****   * 3. Neither the name of STMicroelectronics nor the names of other 
  25:Src/i2c.c     ****   *    contributors to this software may be used to endorse or promote products 
  26:Src/i2c.c     ****   *    derived from this software without specific written permission.
  27:Src/i2c.c     ****   * 4. This software, including modifications and/or derivative works of this 
  28:Src/i2c.c     ****   *    software, must execute solely and exclusively on microcontroller or
  29:Src/i2c.c     ****   *    microprocessor devices manufactured by or for STMicroelectronics.
  30:Src/i2c.c     ****   * 5. Redistribution and use of this software other than as permitted under 
  31:Src/i2c.c     ****   *    this license is void and will automatically terminate your rights under 
ARM GAS  C:\Users\svcgu\AppData\Local\Temp\cc34O2Et.s 			page 2


  32:Src/i2c.c     ****   *    this license. 
  33:Src/i2c.c     ****   *
  34:Src/i2c.c     ****   * THIS SOFTWARE IS PROVIDED BY STMICROELECTRONICS AND CONTRIBUTORS "AS IS" 
  35:Src/i2c.c     ****   * AND ANY EXPRESS, IMPLIED OR STATUTORY WARRANTIES, INCLUDING, BUT NOT 
  36:Src/i2c.c     ****   * LIMITED TO, THE IMPLIED WARRANTIES OF MERCHANTABILITY, FITNESS FOR A 
  37:Src/i2c.c     ****   * PARTICULAR PURPOSE AND NON-INFRINGEMENT OF THIRD PARTY INTELLECTUAL PROPERTY
  38:Src/i2c.c     ****   * RIGHTS ARE DISCLAIMED TO THE FULLEST EXTENT PERMITTED BY LAW. IN NO EVENT 
  39:Src/i2c.c     ****   * SHALL STMICROELECTRONICS OR CONTRIBUTORS BE LIABLE FOR ANY DIRECT, INDIRECT,
  40:Src/i2c.c     ****   * INCIDENTAL, SPECIAL, EXEMPLARY, OR CONSEQUENTIAL DAMAGES (INCLUDING, BUT NOT
  41:Src/i2c.c     ****   * LIMITED TO, PROCUREMENT OF SUBSTITUTE GOODS OR SERVICES; LOSS OF USE, DATA, 
  42:Src/i2c.c     ****   * OR PROFITS; OR BUSINESS INTERRUPTION) HOWEVER CAUSED AND ON ANY THEORY OF 
  43:Src/i2c.c     ****   * LIABILITY, WHETHER IN CONTRACT, STRICT LIABILITY, OR TORT (INCLUDING 
  44:Src/i2c.c     ****   * NEGLIGENCE OR OTHERWISE) ARISING IN ANY WAY OUT OF THE USE OF THIS SOFTWARE,
  45:Src/i2c.c     ****   * EVEN IF ADVISED OF THE POSSIBILITY OF SUCH DAMAGE.
  46:Src/i2c.c     ****   *
  47:Src/i2c.c     ****   ******************************************************************************
  48:Src/i2c.c     ****   */
  49:Src/i2c.c     **** 
  50:Src/i2c.c     **** /* Includes ------------------------------------------------------------------*/
  51:Src/i2c.c     **** #include "i2c.h"
  52:Src/i2c.c     **** 
  53:Src/i2c.c     **** #include "gpio.h"
  54:Src/i2c.c     **** 
  55:Src/i2c.c     **** /* USER CODE BEGIN 0 */
  56:Src/i2c.c     **** 
  57:Src/i2c.c     **** /* USER CODE END 0 */
  58:Src/i2c.c     **** 
  59:Src/i2c.c     **** I2C_HandleTypeDef hi2c2;
  60:Src/i2c.c     **** 
  61:Src/i2c.c     **** /* I2C2 init function */
  62:Src/i2c.c     **** void MX_I2C2_Init(void)
  63:Src/i2c.c     **** {
  28              		.loc 1 63 0
  29              		.cfi_startproc
  30              		@ args = 0, pretend = 0, frame = 0
  31              		@ frame_needed = 0, uses_anonymous_args = 0
  32 0000 08B5     		push	{r3, lr}
  33              	.LCFI0:
  34              		.cfi_def_cfa_offset 8
  35              		.cfi_offset 3, -8
  36              		.cfi_offset 14, -4
  64:Src/i2c.c     **** 
  65:Src/i2c.c     ****   hi2c2.Instance = I2C2;
  37              		.loc 1 65 0
  38 0002 0C48     		ldr	r0, .L5
  39 0004 0C4B     		ldr	r3, .L5+4
  40 0006 0360     		str	r3, [r0]
  66:Src/i2c.c     ****   hi2c2.Init.ClockSpeed = 400000;
  41              		.loc 1 66 0
  42 0008 0C4B     		ldr	r3, .L5+8
  43 000a 4360     		str	r3, [r0, #4]
  67:Src/i2c.c     ****   hi2c2.Init.DutyCycle = I2C_DUTYCYCLE_2;
  44              		.loc 1 67 0
  45 000c 0023     		movs	r3, #0
  46 000e 8360     		str	r3, [r0, #8]
  68:Src/i2c.c     ****   hi2c2.Init.OwnAddress1 = 0;
  47              		.loc 1 68 0
ARM GAS  C:\Users\svcgu\AppData\Local\Temp\cc34O2Et.s 			page 3


  48 0010 C360     		str	r3, [r0, #12]
  69:Src/i2c.c     ****   hi2c2.Init.AddressingMode = I2C_ADDRESSINGMODE_7BIT;
  49              		.loc 1 69 0
  50 0012 4FF48042 		mov	r2, #16384
  51 0016 0261     		str	r2, [r0, #16]
  70:Src/i2c.c     ****   hi2c2.Init.DualAddressMode = I2C_DUALADDRESS_DISABLE;
  52              		.loc 1 70 0
  53 0018 4361     		str	r3, [r0, #20]
  71:Src/i2c.c     ****   hi2c2.Init.OwnAddress2 = 0;
  54              		.loc 1 71 0
  55 001a 8361     		str	r3, [r0, #24]
  72:Src/i2c.c     ****   hi2c2.Init.GeneralCallMode = I2C_GENERALCALL_DISABLE;
  56              		.loc 1 72 0
  57 001c C361     		str	r3, [r0, #28]
  73:Src/i2c.c     ****   hi2c2.Init.NoStretchMode = I2C_NOSTRETCH_DISABLE;
  58              		.loc 1 73 0
  59 001e 0362     		str	r3, [r0, #32]
  74:Src/i2c.c     ****   if (HAL_I2C_Init(&hi2c2) != HAL_OK)
  60              		.loc 1 74 0
  61 0020 FFF7FEFF 		bl	HAL_I2C_Init
  62              	.LVL0:
  63 0024 00B9     		cbnz	r0, .L4
  64              	.L1:
  65 0026 08BD     		pop	{r3, pc}
  66              	.L4:
  75:Src/i2c.c     ****   {
  76:Src/i2c.c     ****     _Error_Handler(__FILE__, __LINE__);
  67              		.loc 1 76 0
  68 0028 4C21     		movs	r1, #76
  69 002a 0548     		ldr	r0, .L5+12
  70 002c FFF7FEFF 		bl	_Error_Handler
  71              	.LVL1:
  77:Src/i2c.c     ****   }
  78:Src/i2c.c     **** 
  79:Src/i2c.c     **** }
  72              		.loc 1 79 0
  73 0030 F9E7     		b	.L1
  74              	.L6:
  75 0032 00BF     		.align	2
  76              	.L5:
  77 0034 00000000 		.word	hi2c2
  78 0038 00580040 		.word	1073764352
  79 003c 801A0600 		.word	400000
  80 0040 00000000 		.word	.LC0
  81              		.cfi_endproc
  82              	.LFE124:
  84              		.section	.text.HAL_I2C_MspInit,"ax",%progbits
  85              		.align	1
  86              		.global	HAL_I2C_MspInit
  87              		.syntax unified
  88              		.thumb
  89              		.thumb_func
  90              		.fpu fpv4-sp-d16
  92              	HAL_I2C_MspInit:
  93              	.LFB125:
  80:Src/i2c.c     **** 
  81:Src/i2c.c     **** void HAL_I2C_MspInit(I2C_HandleTypeDef* i2cHandle)
ARM GAS  C:\Users\svcgu\AppData\Local\Temp\cc34O2Et.s 			page 4


  82:Src/i2c.c     **** {
  94              		.loc 1 82 0
  95              		.cfi_startproc
  96              		@ args = 0, pretend = 0, frame = 24
  97              		@ frame_needed = 0, uses_anonymous_args = 0
  98              	.LVL2:
  83:Src/i2c.c     **** 
  84:Src/i2c.c     ****   GPIO_InitTypeDef GPIO_InitStruct;
  85:Src/i2c.c     ****   if(i2cHandle->Instance==I2C2)
  99              		.loc 1 85 0
 100 0000 0268     		ldr	r2, [r0]
 101 0002 124B     		ldr	r3, .L14
 102 0004 9A42     		cmp	r2, r3
 103 0006 00D0     		beq	.L13
 104 0008 7047     		bx	lr
 105              	.L13:
  82:Src/i2c.c     **** 
 106              		.loc 1 82 0
 107 000a 00B5     		push	{lr}
 108              	.LCFI1:
 109              		.cfi_def_cfa_offset 4
 110              		.cfi_offset 14, -4
 111 000c 87B0     		sub	sp, sp, #28
 112              	.LCFI2:
 113              		.cfi_def_cfa_offset 32
  86:Src/i2c.c     ****   {
  87:Src/i2c.c     ****   /* USER CODE BEGIN I2C2_MspInit 0 */
  88:Src/i2c.c     **** 
  89:Src/i2c.c     ****   /* USER CODE END I2C2_MspInit 0 */
  90:Src/i2c.c     ****   
  91:Src/i2c.c     ****     /**I2C2 GPIO Configuration    
  92:Src/i2c.c     ****     PB10     ------> I2C2_SCL
  93:Src/i2c.c     ****     PB11     ------> I2C2_SDA 
  94:Src/i2c.c     ****     */
  95:Src/i2c.c     ****     GPIO_InitStruct.Pin = GPIO_PIN_10|GPIO_PIN_11;
 114              		.loc 1 95 0
 115 000e 4FF44063 		mov	r3, #3072
 116 0012 0193     		str	r3, [sp, #4]
  96:Src/i2c.c     ****     GPIO_InitStruct.Mode = GPIO_MODE_AF_OD;
 117              		.loc 1 96 0
 118 0014 1223     		movs	r3, #18
 119 0016 0293     		str	r3, [sp, #8]
  97:Src/i2c.c     ****     GPIO_InitStruct.Pull = GPIO_PULLUP;
 120              		.loc 1 97 0
 121 0018 0123     		movs	r3, #1
 122 001a 0393     		str	r3, [sp, #12]
  98:Src/i2c.c     ****     GPIO_InitStruct.Speed = GPIO_SPEED_FREQ_VERY_HIGH;
 123              		.loc 1 98 0
 124 001c 0323     		movs	r3, #3
 125 001e 0493     		str	r3, [sp, #16]
  99:Src/i2c.c     ****     GPIO_InitStruct.Alternate = GPIO_AF4_I2C2;
 126              		.loc 1 99 0
 127 0020 0423     		movs	r3, #4
 128 0022 0593     		str	r3, [sp, #20]
 100:Src/i2c.c     ****     HAL_GPIO_Init(GPIOB, &GPIO_InitStruct);
 129              		.loc 1 100 0
 130 0024 0DEB0301 		add	r1, sp, r3
ARM GAS  C:\Users\svcgu\AppData\Local\Temp\cc34O2Et.s 			page 5


 131 0028 0948     		ldr	r0, .L14+4
 132              	.LVL3:
 133 002a FFF7FEFF 		bl	HAL_GPIO_Init
 134              	.LVL4:
 135              	.LBB2:
 101:Src/i2c.c     **** 
 102:Src/i2c.c     ****     /* I2C2 clock enable */
 103:Src/i2c.c     ****     __HAL_RCC_I2C2_CLK_ENABLE();
 136              		.loc 1 103 0
 137 002e 0023     		movs	r3, #0
 138 0030 0093     		str	r3, [sp]
 139 0032 084B     		ldr	r3, .L14+8
 140 0034 1A6C     		ldr	r2, [r3, #64]
 141 0036 42F48002 		orr	r2, r2, #4194304
 142 003a 1A64     		str	r2, [r3, #64]
 143 003c 1B6C     		ldr	r3, [r3, #64]
 144 003e 03F48003 		and	r3, r3, #4194304
 145 0042 0093     		str	r3, [sp]
 146 0044 009B     		ldr	r3, [sp]
 147              	.LBE2:
 104:Src/i2c.c     ****   /* USER CODE BEGIN I2C2_MspInit 1 */
 105:Src/i2c.c     **** 
 106:Src/i2c.c     ****   /* USER CODE END I2C2_MspInit 1 */
 107:Src/i2c.c     ****   }
 108:Src/i2c.c     **** }
 148              		.loc 1 108 0
 149 0046 07B0     		add	sp, sp, #28
 150              	.LCFI3:
 151              		.cfi_def_cfa_offset 4
 152              		@ sp needed
 153 0048 5DF804FB 		ldr	pc, [sp], #4
 154              	.L15:
 155              		.align	2
 156              	.L14:
 157 004c 00580040 		.word	1073764352
 158 0050 00040240 		.word	1073873920
 159 0054 00380240 		.word	1073887232
 160              		.cfi_endproc
 161              	.LFE125:
 163              		.section	.text.HAL_I2C_MspDeInit,"ax",%progbits
 164              		.align	1
 165              		.global	HAL_I2C_MspDeInit
 166              		.syntax unified
 167              		.thumb
 168              		.thumb_func
 169              		.fpu fpv4-sp-d16
 171              	HAL_I2C_MspDeInit:
 172              	.LFB126:
 109:Src/i2c.c     **** 
 110:Src/i2c.c     **** void HAL_I2C_MspDeInit(I2C_HandleTypeDef* i2cHandle)
 111:Src/i2c.c     **** {
 173              		.loc 1 111 0
 174              		.cfi_startproc
 175              		@ args = 0, pretend = 0, frame = 0
 176              		@ frame_needed = 0, uses_anonymous_args = 0
 177              	.LVL5:
 178 0000 08B5     		push	{r3, lr}
ARM GAS  C:\Users\svcgu\AppData\Local\Temp\cc34O2Et.s 			page 6


 179              	.LCFI4:
 180              		.cfi_def_cfa_offset 8
 181              		.cfi_offset 3, -8
 182              		.cfi_offset 14, -4
 112:Src/i2c.c     **** 
 113:Src/i2c.c     ****   if(i2cHandle->Instance==I2C2)
 183              		.loc 1 113 0
 184 0002 0268     		ldr	r2, [r0]
 185 0004 074B     		ldr	r3, .L20
 186 0006 9A42     		cmp	r2, r3
 187 0008 00D0     		beq	.L19
 188              	.LVL6:
 189              	.L16:
 190 000a 08BD     		pop	{r3, pc}
 191              	.LVL7:
 192              	.L19:
 114:Src/i2c.c     ****   {
 115:Src/i2c.c     ****   /* USER CODE BEGIN I2C2_MspDeInit 0 */
 116:Src/i2c.c     **** 
 117:Src/i2c.c     ****   /* USER CODE END I2C2_MspDeInit 0 */
 118:Src/i2c.c     ****     /* Peripheral clock disable */
 119:Src/i2c.c     ****     __HAL_RCC_I2C2_CLK_DISABLE();
 193              		.loc 1 119 0
 194 000c 064A     		ldr	r2, .L20+4
 195 000e 136C     		ldr	r3, [r2, #64]
 196 0010 23F48003 		bic	r3, r3, #4194304
 197 0014 1364     		str	r3, [r2, #64]
 120:Src/i2c.c     ****   
 121:Src/i2c.c     ****     /**I2C2 GPIO Configuration    
 122:Src/i2c.c     ****     PB10     ------> I2C2_SCL
 123:Src/i2c.c     ****     PB11     ------> I2C2_SDA 
 124:Src/i2c.c     ****     */
 125:Src/i2c.c     ****     HAL_GPIO_DeInit(GPIOB, GPIO_PIN_10|GPIO_PIN_11);
 198              		.loc 1 125 0
 199 0016 4FF44061 		mov	r1, #3072
 200 001a 0448     		ldr	r0, .L20+8
 201              	.LVL8:
 202 001c FFF7FEFF 		bl	HAL_GPIO_DeInit
 203              	.LVL9:
 126:Src/i2c.c     **** 
 127:Src/i2c.c     ****   /* USER CODE BEGIN I2C2_MspDeInit 1 */
 128:Src/i2c.c     **** 
 129:Src/i2c.c     ****   /* USER CODE END I2C2_MspDeInit 1 */
 130:Src/i2c.c     ****   }
 131:Src/i2c.c     **** } 
 204              		.loc 1 131 0
 205 0020 F3E7     		b	.L16
 206              	.L21:
 207 0022 00BF     		.align	2
 208              	.L20:
 209 0024 00580040 		.word	1073764352
 210 0028 00380240 		.word	1073887232
 211 002c 00040240 		.word	1073873920
 212              		.cfi_endproc
 213              	.LFE126:
 215              		.comm	hi2c2,84,4
 216              		.section	.rodata.MX_I2C2_Init.str1.4,"aMS",%progbits,1
ARM GAS  C:\Users\svcgu\AppData\Local\Temp\cc34O2Et.s 			page 7


 217              		.align	2
 218              	.LC0:
 219 0000 5372632F 		.ascii	"Src/i2c.c\000"
 219      6932632E 
 219      6300
 220              		.text
 221              	.Letext0:
 222              		.file 2 "c:\\program files (x86)\\gnu tools arm embedded\\6 2017-q2-update\\arm-none-eabi\\include
 223              		.file 3 "c:\\program files (x86)\\gnu tools arm embedded\\6 2017-q2-update\\arm-none-eabi\\include
 224              		.file 4 "Drivers/CMSIS/Include/core_cm4.h"
 225              		.file 5 "Drivers/CMSIS/Device/ST/STM32F4xx/Include/system_stm32f4xx.h"
 226              		.file 6 "Drivers/CMSIS/Device/ST/STM32F4xx/Include/stm32f407xx.h"
 227              		.file 7 "c:\\program files (x86)\\gnu tools arm embedded\\6 2017-q2-update\\arm-none-eabi\\include
 228              		.file 8 "c:\\program files (x86)\\gnu tools arm embedded\\6 2017-q2-update\\arm-none-eabi\\include
 229              		.file 9 "c:\\program files (x86)\\gnu tools arm embedded\\6 2017-q2-update\\lib\\gcc\\arm-none-eab
 230              		.file 10 "c:\\program files (x86)\\gnu tools arm embedded\\6 2017-q2-update\\arm-none-eabi\\includ
 231              		.file 11 "Drivers/STM32F4xx_HAL_Driver/Inc/stm32f4xx_hal_def.h"
 232              		.file 12 "Drivers/STM32F4xx_HAL_Driver/Inc/stm32f4xx_hal_gpio.h"
 233              		.file 13 "Drivers/STM32F4xx_HAL_Driver/Inc/stm32f4xx_hal_dma.h"
 234              		.file 14 "Drivers/STM32F4xx_HAL_Driver/Inc/stm32f4xx_hal_i2c.h"
 235              		.file 15 "Inc/i2c.h"
ARM GAS  C:\Users\svcgu\AppData\Local\Temp\cc34O2Et.s 			page 8

