ARM GAS  C:\Users\svcgu\AppData\Local\Temp\ccZ0uYCg.s 			page 1


   1              		.cpu cortex-m4
   2              		.eabi_attribute 27, 1
   3              		.eabi_attribute 28, 1
   4              		.eabi_attribute 20, 1
   5              		.eabi_attribute 21, 1
   6              		.eabi_attribute 23, 3
   7              		.eabi_attribute 24, 1
   8              		.eabi_attribute 25, 1
   9              		.eabi_attribute 26, 1
  10              		.eabi_attribute 30, 1
  11              		.eabi_attribute 34, 1
  12              		.eabi_attribute 18, 4
  13              		.file	"stm32f4xx_hal_rtc_ex.c"
  14              		.text
  15              	.Ltext0:
  16              		.cfi_sections	.debug_frame
  17              		.section	.text.HAL_RTCEx_SetTimeStamp,"ax",%progbits
  18              		.align	1
  19              		.global	HAL_RTCEx_SetTimeStamp
  20              		.syntax unified
  21              		.thumb
  22              		.thumb_func
  23              		.fpu fpv4-sp-d16
  25              	HAL_RTCEx_SetTimeStamp:
  26              	.LFB124:
  27              		.file 1 "Drivers/STM32F4xx_HAL_Driver/Src/stm32f4xx_hal_rtc_ex.c"
   1:Drivers/STM32F4xx_HAL_Driver/Src/stm32f4xx_hal_rtc_ex.c **** /**
   2:Drivers/STM32F4xx_HAL_Driver/Src/stm32f4xx_hal_rtc_ex.c ****   ******************************************************************************
   3:Drivers/STM32F4xx_HAL_Driver/Src/stm32f4xx_hal_rtc_ex.c ****   * @file    stm32f4xx_hal_rtc_ex.c
   4:Drivers/STM32F4xx_HAL_Driver/Src/stm32f4xx_hal_rtc_ex.c ****   * @author  MCD Application Team
   5:Drivers/STM32F4xx_HAL_Driver/Src/stm32f4xx_hal_rtc_ex.c ****   * @brief   RTC HAL module driver.
   6:Drivers/STM32F4xx_HAL_Driver/Src/stm32f4xx_hal_rtc_ex.c ****   *          This file provides firmware functions to manage the following 
   7:Drivers/STM32F4xx_HAL_Driver/Src/stm32f4xx_hal_rtc_ex.c ****   *          functionalities of the Real Time Clock (RTC) Extension peripheral:
   8:Drivers/STM32F4xx_HAL_Driver/Src/stm32f4xx_hal_rtc_ex.c ****   *           + RTC Time Stamp functions
   9:Drivers/STM32F4xx_HAL_Driver/Src/stm32f4xx_hal_rtc_ex.c ****   *           + RTC Tamper functions 
  10:Drivers/STM32F4xx_HAL_Driver/Src/stm32f4xx_hal_rtc_ex.c ****   *           + RTC Wake-up functions
  11:Drivers/STM32F4xx_HAL_Driver/Src/stm32f4xx_hal_rtc_ex.c ****   *           + Extension Control functions
  12:Drivers/STM32F4xx_HAL_Driver/Src/stm32f4xx_hal_rtc_ex.c ****   *           + Extension RTC features functions    
  13:Drivers/STM32F4xx_HAL_Driver/Src/stm32f4xx_hal_rtc_ex.c ****   *         
  14:Drivers/STM32F4xx_HAL_Driver/Src/stm32f4xx_hal_rtc_ex.c ****   @verbatim
  15:Drivers/STM32F4xx_HAL_Driver/Src/stm32f4xx_hal_rtc_ex.c ****   ==============================================================================
  16:Drivers/STM32F4xx_HAL_Driver/Src/stm32f4xx_hal_rtc_ex.c ****                   ##### How to use this driver #####
  17:Drivers/STM32F4xx_HAL_Driver/Src/stm32f4xx_hal_rtc_ex.c ****   ==============================================================================
  18:Drivers/STM32F4xx_HAL_Driver/Src/stm32f4xx_hal_rtc_ex.c ****   [..] 
  19:Drivers/STM32F4xx_HAL_Driver/Src/stm32f4xx_hal_rtc_ex.c ****     (+) Enable the RTC domain access.
  20:Drivers/STM32F4xx_HAL_Driver/Src/stm32f4xx_hal_rtc_ex.c ****     (+) Configure the RTC Prescaler (Asynchronous and Synchronous) and RTC hour 
  21:Drivers/STM32F4xx_HAL_Driver/Src/stm32f4xx_hal_rtc_ex.c ****         format using the HAL_RTC_Init() function.
  22:Drivers/STM32F4xx_HAL_Driver/Src/stm32f4xx_hal_rtc_ex.c ****   
  23:Drivers/STM32F4xx_HAL_Driver/Src/stm32f4xx_hal_rtc_ex.c ****   *** RTC Wake-up configuration ***
  24:Drivers/STM32F4xx_HAL_Driver/Src/stm32f4xx_hal_rtc_ex.c ****   ================================
  25:Drivers/STM32F4xx_HAL_Driver/Src/stm32f4xx_hal_rtc_ex.c ****   [..] 
  26:Drivers/STM32F4xx_HAL_Driver/Src/stm32f4xx_hal_rtc_ex.c ****     (+) To configure the RTC Wake-up Clock source and Counter use the HAL_RTC_SetWakeUpTimer()
  27:Drivers/STM32F4xx_HAL_Driver/Src/stm32f4xx_hal_rtc_ex.c ****         function. You can also configure the RTC Wake-up timer in interrupt mode 
  28:Drivers/STM32F4xx_HAL_Driver/Src/stm32f4xx_hal_rtc_ex.c ****         using the HAL_RTC_SetWakeUpTimer_IT() function.
  29:Drivers/STM32F4xx_HAL_Driver/Src/stm32f4xx_hal_rtc_ex.c ****     (+) To read the RTC Wake-up Counter register, use the HAL_RTC_GetWakeUpTimer() 
  30:Drivers/STM32F4xx_HAL_Driver/Src/stm32f4xx_hal_rtc_ex.c ****         function.
  31:Drivers/STM32F4xx_HAL_Driver/Src/stm32f4xx_hal_rtc_ex.c ****   
ARM GAS  C:\Users\svcgu\AppData\Local\Temp\ccZ0uYCg.s 			page 2


  32:Drivers/STM32F4xx_HAL_Driver/Src/stm32f4xx_hal_rtc_ex.c ****   *** TimeStamp configuration ***
  33:Drivers/STM32F4xx_HAL_Driver/Src/stm32f4xx_hal_rtc_ex.c ****   ===============================
  34:Drivers/STM32F4xx_HAL_Driver/Src/stm32f4xx_hal_rtc_ex.c ****   [..]
  35:Drivers/STM32F4xx_HAL_Driver/Src/stm32f4xx_hal_rtc_ex.c ****     (+) Configure the RTC_AFx trigger and enable the RTC TimeStamp using the 
  36:Drivers/STM32F4xx_HAL_Driver/Src/stm32f4xx_hal_rtc_ex.c ****         HAL_RTC_SetTimeStamp() function. You can also configure the RTC TimeStamp with 
  37:Drivers/STM32F4xx_HAL_Driver/Src/stm32f4xx_hal_rtc_ex.c ****         interrupt mode using the HAL_RTC_SetTimeStamp_IT() function.
  38:Drivers/STM32F4xx_HAL_Driver/Src/stm32f4xx_hal_rtc_ex.c ****     (+) To read the RTC TimeStamp Time and Date register, use the HAL_RTC_GetTimeStamp()
  39:Drivers/STM32F4xx_HAL_Driver/Src/stm32f4xx_hal_rtc_ex.c ****         function.
  40:Drivers/STM32F4xx_HAL_Driver/Src/stm32f4xx_hal_rtc_ex.c ****     (+) The TIMESTAMP alternate function can be mapped either to RTC_AF1 (PC13)
  41:Drivers/STM32F4xx_HAL_Driver/Src/stm32f4xx_hal_rtc_ex.c ****         or RTC_AF2 (PI8 or PA0 only for STM32F446xx devices) depending on the value of TSINSEL bit 
  42:Drivers/STM32F4xx_HAL_Driver/Src/stm32f4xx_hal_rtc_ex.c ****         RTC_TAFCR register. The corresponding pin is also selected by HAL_RTC_SetTimeStamp()
  43:Drivers/STM32F4xx_HAL_Driver/Src/stm32f4xx_hal_rtc_ex.c ****         or HAL_RTC_SetTimeStamp_IT() function.
  44:Drivers/STM32F4xx_HAL_Driver/Src/stm32f4xx_hal_rtc_ex.c ****   
  45:Drivers/STM32F4xx_HAL_Driver/Src/stm32f4xx_hal_rtc_ex.c ****   *** Tamper configuration ***
  46:Drivers/STM32F4xx_HAL_Driver/Src/stm32f4xx_hal_rtc_ex.c ****   ============================
  47:Drivers/STM32F4xx_HAL_Driver/Src/stm32f4xx_hal_rtc_ex.c ****   [..]
  48:Drivers/STM32F4xx_HAL_Driver/Src/stm32f4xx_hal_rtc_ex.c ****     (+) Enable the RTC Tamper and configure the Tamper filter count, trigger Edge 
  49:Drivers/STM32F4xx_HAL_Driver/Src/stm32f4xx_hal_rtc_ex.c ****         or Level according to the Tamper filter (if equal to 0 Edge else Level) 
  50:Drivers/STM32F4xx_HAL_Driver/Src/stm32f4xx_hal_rtc_ex.c ****         value, sampling frequency, precharge or discharge and Pull-UP using the 
  51:Drivers/STM32F4xx_HAL_Driver/Src/stm32f4xx_hal_rtc_ex.c ****         HAL_RTC_SetTamper() function. You can configure RTC Tamper in interrupt 
  52:Drivers/STM32F4xx_HAL_Driver/Src/stm32f4xx_hal_rtc_ex.c ****         mode using HAL_RTC_SetTamper_IT() function.
  53:Drivers/STM32F4xx_HAL_Driver/Src/stm32f4xx_hal_rtc_ex.c ****     (+) The TAMPER1 alternate function can be mapped either to RTC_AF1 (PC13)
  54:Drivers/STM32F4xx_HAL_Driver/Src/stm32f4xx_hal_rtc_ex.c ****         or RTC_AF2 (PI8 or PA0 only for STM32F446xx devices) depending on the value of TAMP1INSEL b
  55:Drivers/STM32F4xx_HAL_Driver/Src/stm32f4xx_hal_rtc_ex.c ****         RTC_TAFCR register. The corresponding pin is also selected by HAL_RTC_SetTamper()
  56:Drivers/STM32F4xx_HAL_Driver/Src/stm32f4xx_hal_rtc_ex.c ****         or HAL_RTC_SetTamper_IT() function.
  57:Drivers/STM32F4xx_HAL_Driver/Src/stm32f4xx_hal_rtc_ex.c ****   
  58:Drivers/STM32F4xx_HAL_Driver/Src/stm32f4xx_hal_rtc_ex.c ****   *** Backup Data Registers configuration ***
  59:Drivers/STM32F4xx_HAL_Driver/Src/stm32f4xx_hal_rtc_ex.c ****   ===========================================
  60:Drivers/STM32F4xx_HAL_Driver/Src/stm32f4xx_hal_rtc_ex.c ****   [..]
  61:Drivers/STM32F4xx_HAL_Driver/Src/stm32f4xx_hal_rtc_ex.c ****     (+) To write to the RTC Backup Data registers, use the HAL_RTC_BKUPWrite()
  62:Drivers/STM32F4xx_HAL_Driver/Src/stm32f4xx_hal_rtc_ex.c ****         function.  
  63:Drivers/STM32F4xx_HAL_Driver/Src/stm32f4xx_hal_rtc_ex.c ****     (+) To read the RTC Backup Data registers, use the HAL_RTC_BKUPRead()
  64:Drivers/STM32F4xx_HAL_Driver/Src/stm32f4xx_hal_rtc_ex.c ****         function.
  65:Drivers/STM32F4xx_HAL_Driver/Src/stm32f4xx_hal_rtc_ex.c ****      
  66:Drivers/STM32F4xx_HAL_Driver/Src/stm32f4xx_hal_rtc_ex.c ****    @endverbatim
  67:Drivers/STM32F4xx_HAL_Driver/Src/stm32f4xx_hal_rtc_ex.c ****   ******************************************************************************
  68:Drivers/STM32F4xx_HAL_Driver/Src/stm32f4xx_hal_rtc_ex.c ****   * @attention
  69:Drivers/STM32F4xx_HAL_Driver/Src/stm32f4xx_hal_rtc_ex.c ****   *
  70:Drivers/STM32F4xx_HAL_Driver/Src/stm32f4xx_hal_rtc_ex.c ****   * <h2><center>&copy; COPYRIGHT(c) 2017 STMicroelectronics</center></h2>
  71:Drivers/STM32F4xx_HAL_Driver/Src/stm32f4xx_hal_rtc_ex.c ****   *
  72:Drivers/STM32F4xx_HAL_Driver/Src/stm32f4xx_hal_rtc_ex.c ****   * Redistribution and use in source and binary forms, with or without modification,
  73:Drivers/STM32F4xx_HAL_Driver/Src/stm32f4xx_hal_rtc_ex.c ****   * are permitted provided that the following conditions are met:
  74:Drivers/STM32F4xx_HAL_Driver/Src/stm32f4xx_hal_rtc_ex.c ****   *   1. Redistributions of source code must retain the above copyright notice,
  75:Drivers/STM32F4xx_HAL_Driver/Src/stm32f4xx_hal_rtc_ex.c ****   *      this list of conditions and the following disclaimer.
  76:Drivers/STM32F4xx_HAL_Driver/Src/stm32f4xx_hal_rtc_ex.c ****   *   2. Redistributions in binary form must reproduce the above copyright notice,
  77:Drivers/STM32F4xx_HAL_Driver/Src/stm32f4xx_hal_rtc_ex.c ****   *      this list of conditions and the following disclaimer in the documentation
  78:Drivers/STM32F4xx_HAL_Driver/Src/stm32f4xx_hal_rtc_ex.c ****   *      and/or other materials provided with the distribution.
  79:Drivers/STM32F4xx_HAL_Driver/Src/stm32f4xx_hal_rtc_ex.c ****   *   3. Neither the name of STMicroelectronics nor the names of its contributors
  80:Drivers/STM32F4xx_HAL_Driver/Src/stm32f4xx_hal_rtc_ex.c ****   *      may be used to endorse or promote products derived from this software
  81:Drivers/STM32F4xx_HAL_Driver/Src/stm32f4xx_hal_rtc_ex.c ****   *      without specific prior written permission.
  82:Drivers/STM32F4xx_HAL_Driver/Src/stm32f4xx_hal_rtc_ex.c ****   *
  83:Drivers/STM32F4xx_HAL_Driver/Src/stm32f4xx_hal_rtc_ex.c ****   * THIS SOFTWARE IS PROVIDED BY THE COPYRIGHT HOLDERS AND CONTRIBUTORS "AS IS"
  84:Drivers/STM32F4xx_HAL_Driver/Src/stm32f4xx_hal_rtc_ex.c ****   * AND ANY EXPRESS OR IMPLIED WARRANTIES, INCLUDING, BUT NOT LIMITED TO, THE
  85:Drivers/STM32F4xx_HAL_Driver/Src/stm32f4xx_hal_rtc_ex.c ****   * IMPLIED WARRANTIES OF MERCHANTABILITY AND FITNESS FOR A PARTICULAR PURPOSE ARE
  86:Drivers/STM32F4xx_HAL_Driver/Src/stm32f4xx_hal_rtc_ex.c ****   * DISCLAIMED. IN NO EVENT SHALL THE COPYRIGHT HOLDER OR CONTRIBUTORS BE LIABLE
  87:Drivers/STM32F4xx_HAL_Driver/Src/stm32f4xx_hal_rtc_ex.c ****   * FOR ANY DIRECT, INDIRECT, INCIDENTAL, SPECIAL, EXEMPLARY, OR CONSEQUENTIAL
  88:Drivers/STM32F4xx_HAL_Driver/Src/stm32f4xx_hal_rtc_ex.c ****   * DAMAGES (INCLUDING, BUT NOT LIMITED TO, PROCUREMENT OF SUBSTITUTE GOODS OR
ARM GAS  C:\Users\svcgu\AppData\Local\Temp\ccZ0uYCg.s 			page 3


  89:Drivers/STM32F4xx_HAL_Driver/Src/stm32f4xx_hal_rtc_ex.c ****   * SERVICES; LOSS OF USE, DATA, OR PROFITS; OR BUSINESS INTERRUPTION) HOWEVER
  90:Drivers/STM32F4xx_HAL_Driver/Src/stm32f4xx_hal_rtc_ex.c ****   * CAUSED AND ON ANY THEORY OF LIABILITY, WHETHER IN CONTRACT, STRICT LIABILITY,
  91:Drivers/STM32F4xx_HAL_Driver/Src/stm32f4xx_hal_rtc_ex.c ****   * OR TORT (INCLUDING NEGLIGENCE OR OTHERWISE) ARISING IN ANY WAY OUT OF THE USE
  92:Drivers/STM32F4xx_HAL_Driver/Src/stm32f4xx_hal_rtc_ex.c ****   * OF THIS SOFTWARE, EVEN IF ADVISED OF THE POSSIBILITY OF SUCH DAMAGE.
  93:Drivers/STM32F4xx_HAL_Driver/Src/stm32f4xx_hal_rtc_ex.c ****   *
  94:Drivers/STM32F4xx_HAL_Driver/Src/stm32f4xx_hal_rtc_ex.c ****   ******************************************************************************
  95:Drivers/STM32F4xx_HAL_Driver/Src/stm32f4xx_hal_rtc_ex.c ****   */ 
  96:Drivers/STM32F4xx_HAL_Driver/Src/stm32f4xx_hal_rtc_ex.c **** 
  97:Drivers/STM32F4xx_HAL_Driver/Src/stm32f4xx_hal_rtc_ex.c **** /* Includes ------------------------------------------------------------------*/
  98:Drivers/STM32F4xx_HAL_Driver/Src/stm32f4xx_hal_rtc_ex.c **** #include "stm32f4xx_hal.h"
  99:Drivers/STM32F4xx_HAL_Driver/Src/stm32f4xx_hal_rtc_ex.c **** 
 100:Drivers/STM32F4xx_HAL_Driver/Src/stm32f4xx_hal_rtc_ex.c **** /** @addtogroup STM32F4xx_HAL_Driver
 101:Drivers/STM32F4xx_HAL_Driver/Src/stm32f4xx_hal_rtc_ex.c ****   * @{
 102:Drivers/STM32F4xx_HAL_Driver/Src/stm32f4xx_hal_rtc_ex.c ****   */
 103:Drivers/STM32F4xx_HAL_Driver/Src/stm32f4xx_hal_rtc_ex.c **** 
 104:Drivers/STM32F4xx_HAL_Driver/Src/stm32f4xx_hal_rtc_ex.c **** /** @defgroup RTCEx RTCEx
 105:Drivers/STM32F4xx_HAL_Driver/Src/stm32f4xx_hal_rtc_ex.c ****   * @brief RTC HAL module driver
 106:Drivers/STM32F4xx_HAL_Driver/Src/stm32f4xx_hal_rtc_ex.c ****   * @{
 107:Drivers/STM32F4xx_HAL_Driver/Src/stm32f4xx_hal_rtc_ex.c ****   */
 108:Drivers/STM32F4xx_HAL_Driver/Src/stm32f4xx_hal_rtc_ex.c **** 
 109:Drivers/STM32F4xx_HAL_Driver/Src/stm32f4xx_hal_rtc_ex.c **** #ifdef HAL_RTC_MODULE_ENABLED
 110:Drivers/STM32F4xx_HAL_Driver/Src/stm32f4xx_hal_rtc_ex.c **** 
 111:Drivers/STM32F4xx_HAL_Driver/Src/stm32f4xx_hal_rtc_ex.c **** /* Private typedef -----------------------------------------------------------*/
 112:Drivers/STM32F4xx_HAL_Driver/Src/stm32f4xx_hal_rtc_ex.c **** /* Private define ------------------------------------------------------------*/
 113:Drivers/STM32F4xx_HAL_Driver/Src/stm32f4xx_hal_rtc_ex.c **** /* Private macro -------------------------------------------------------------*/
 114:Drivers/STM32F4xx_HAL_Driver/Src/stm32f4xx_hal_rtc_ex.c **** /* Private variables ---------------------------------------------------------*/
 115:Drivers/STM32F4xx_HAL_Driver/Src/stm32f4xx_hal_rtc_ex.c **** /* Private function prototypes -----------------------------------------------*/
 116:Drivers/STM32F4xx_HAL_Driver/Src/stm32f4xx_hal_rtc_ex.c **** /* Private functions ---------------------------------------------------------*/
 117:Drivers/STM32F4xx_HAL_Driver/Src/stm32f4xx_hal_rtc_ex.c **** 
 118:Drivers/STM32F4xx_HAL_Driver/Src/stm32f4xx_hal_rtc_ex.c **** /** @defgroup RTCEx_Exported_Functions RTCEx Exported Functions
 119:Drivers/STM32F4xx_HAL_Driver/Src/stm32f4xx_hal_rtc_ex.c ****   * @{
 120:Drivers/STM32F4xx_HAL_Driver/Src/stm32f4xx_hal_rtc_ex.c ****   */  
 121:Drivers/STM32F4xx_HAL_Driver/Src/stm32f4xx_hal_rtc_ex.c **** 
 122:Drivers/STM32F4xx_HAL_Driver/Src/stm32f4xx_hal_rtc_ex.c **** /** @defgroup RTCEx_Exported_Functions_Group1 RTC TimeStamp and Tamper functions
 123:Drivers/STM32F4xx_HAL_Driver/Src/stm32f4xx_hal_rtc_ex.c ****  *  @brief   RTC TimeStamp and Tamper functions
 124:Drivers/STM32F4xx_HAL_Driver/Src/stm32f4xx_hal_rtc_ex.c ****  *
 125:Drivers/STM32F4xx_HAL_Driver/Src/stm32f4xx_hal_rtc_ex.c **** @verbatim   
 126:Drivers/STM32F4xx_HAL_Driver/Src/stm32f4xx_hal_rtc_ex.c ****  ===============================================================================
 127:Drivers/STM32F4xx_HAL_Driver/Src/stm32f4xx_hal_rtc_ex.c ****                  ##### RTC TimeStamp and Tamper functions #####
 128:Drivers/STM32F4xx_HAL_Driver/Src/stm32f4xx_hal_rtc_ex.c ****  ===============================================================================  
 129:Drivers/STM32F4xx_HAL_Driver/Src/stm32f4xx_hal_rtc_ex.c ****  
 130:Drivers/STM32F4xx_HAL_Driver/Src/stm32f4xx_hal_rtc_ex.c ****  [..] This section provides functions allowing to configure TimeStamp feature
 131:Drivers/STM32F4xx_HAL_Driver/Src/stm32f4xx_hal_rtc_ex.c **** 
 132:Drivers/STM32F4xx_HAL_Driver/Src/stm32f4xx_hal_rtc_ex.c **** @endverbatim
 133:Drivers/STM32F4xx_HAL_Driver/Src/stm32f4xx_hal_rtc_ex.c ****   * @{
 134:Drivers/STM32F4xx_HAL_Driver/Src/stm32f4xx_hal_rtc_ex.c ****   */
 135:Drivers/STM32F4xx_HAL_Driver/Src/stm32f4xx_hal_rtc_ex.c **** 
 136:Drivers/STM32F4xx_HAL_Driver/Src/stm32f4xx_hal_rtc_ex.c **** /**
 137:Drivers/STM32F4xx_HAL_Driver/Src/stm32f4xx_hal_rtc_ex.c ****   * @brief  Sets TimeStamp.
 138:Drivers/STM32F4xx_HAL_Driver/Src/stm32f4xx_hal_rtc_ex.c ****   * @note   This API must be called before enabling the TimeStamp feature. 
 139:Drivers/STM32F4xx_HAL_Driver/Src/stm32f4xx_hal_rtc_ex.c ****   * @param  hrtc pointer to a RTC_HandleTypeDef structure that contains
 140:Drivers/STM32F4xx_HAL_Driver/Src/stm32f4xx_hal_rtc_ex.c ****   *                the configuration information for RTC.
 141:Drivers/STM32F4xx_HAL_Driver/Src/stm32f4xx_hal_rtc_ex.c ****   * @param  TimeStampEdge Specifies the pin edge on which the TimeStamp is 
 142:Drivers/STM32F4xx_HAL_Driver/Src/stm32f4xx_hal_rtc_ex.c ****   *         activated.
 143:Drivers/STM32F4xx_HAL_Driver/Src/stm32f4xx_hal_rtc_ex.c ****   *          This parameter can be one of the following values:
 144:Drivers/STM32F4xx_HAL_Driver/Src/stm32f4xx_hal_rtc_ex.c ****   *             @arg RTC_TIMESTAMPEDGE_RISING: the Time stamp event occurs on the  
 145:Drivers/STM32F4xx_HAL_Driver/Src/stm32f4xx_hal_rtc_ex.c ****   *                                        rising edge of the related pin.
ARM GAS  C:\Users\svcgu\AppData\Local\Temp\ccZ0uYCg.s 			page 4


 146:Drivers/STM32F4xx_HAL_Driver/Src/stm32f4xx_hal_rtc_ex.c ****   *             @arg RTC_TIMESTAMPEDGE_FALLING: the Time stamp event occurs on the 
 147:Drivers/STM32F4xx_HAL_Driver/Src/stm32f4xx_hal_rtc_ex.c ****   *                                         falling edge of the related pin.
 148:Drivers/STM32F4xx_HAL_Driver/Src/stm32f4xx_hal_rtc_ex.c ****   * @param  RTC_TimeStampPin specifies the RTC TimeStamp Pin.
 149:Drivers/STM32F4xx_HAL_Driver/Src/stm32f4xx_hal_rtc_ex.c ****   *          This parameter can be one of the following values:
 150:Drivers/STM32F4xx_HAL_Driver/Src/stm32f4xx_hal_rtc_ex.c ****   *             @arg RTC_TIMESTAMPPIN_DEFAULT: PC13 is selected as RTC TimeStamp Pin.
 151:Drivers/STM32F4xx_HAL_Driver/Src/stm32f4xx_hal_rtc_ex.c ****   *             @arg RTC_TIMESTAMPPIN_POS1: PI8/PA0 is selected as RTC TimeStamp Pin. 
 152:Drivers/STM32F4xx_HAL_Driver/Src/stm32f4xx_hal_rtc_ex.c ****   *             (not applicable in the case of STM32F412xx, STM32F413xx and STM32F423xx devices) 
 153:Drivers/STM32F4xx_HAL_Driver/Src/stm32f4xx_hal_rtc_ex.c ****   *             (PI8 for all STM32 devices except for STM32F446xx devices the PA0 is used) 
 154:Drivers/STM32F4xx_HAL_Driver/Src/stm32f4xx_hal_rtc_ex.c ****   *             @arg RTC_TIMESTAMPPIN_PA0: PA0 is selected as RTC TimeStamp Pin only for STM32F446x
 155:Drivers/STM32F4xx_HAL_Driver/Src/stm32f4xx_hal_rtc_ex.c ****   * @retval HAL status
 156:Drivers/STM32F4xx_HAL_Driver/Src/stm32f4xx_hal_rtc_ex.c ****   */
 157:Drivers/STM32F4xx_HAL_Driver/Src/stm32f4xx_hal_rtc_ex.c **** HAL_StatusTypeDef HAL_RTCEx_SetTimeStamp(RTC_HandleTypeDef *hrtc, uint32_t TimeStampEdge, uint32_t 
 158:Drivers/STM32F4xx_HAL_Driver/Src/stm32f4xx_hal_rtc_ex.c **** {
  28              		.loc 1 158 0
  29              		.cfi_startproc
  30              		@ args = 0, pretend = 0, frame = 0
  31              		@ frame_needed = 0, uses_anonymous_args = 0
  32              		@ link register save eliminated.
  33              	.LVL0:
  34 0000 30B4     		push	{r4, r5}
  35              	.LCFI0:
  36              		.cfi_def_cfa_offset 8
  37              		.cfi_offset 4, -8
  38              		.cfi_offset 5, -4
  39              	.LVL1:
 159:Drivers/STM32F4xx_HAL_Driver/Src/stm32f4xx_hal_rtc_ex.c ****   uint32_t tmpreg = 0U;
 160:Drivers/STM32F4xx_HAL_Driver/Src/stm32f4xx_hal_rtc_ex.c ****   
 161:Drivers/STM32F4xx_HAL_Driver/Src/stm32f4xx_hal_rtc_ex.c ****   /* Check the parameters */
 162:Drivers/STM32F4xx_HAL_Driver/Src/stm32f4xx_hal_rtc_ex.c ****   assert_param(IS_TIMESTAMP_EDGE(TimeStampEdge));
 163:Drivers/STM32F4xx_HAL_Driver/Src/stm32f4xx_hal_rtc_ex.c ****   assert_param(IS_RTC_TIMESTAMP_PIN(RTC_TimeStampPin));
 164:Drivers/STM32F4xx_HAL_Driver/Src/stm32f4xx_hal_rtc_ex.c ****   
 165:Drivers/STM32F4xx_HAL_Driver/Src/stm32f4xx_hal_rtc_ex.c ****   /* Process Locked */ 
 166:Drivers/STM32F4xx_HAL_Driver/Src/stm32f4xx_hal_rtc_ex.c ****   __HAL_LOCK(hrtc);
  40              		.loc 1 166 0
  41 0002 047F     		ldrb	r4, [r0, #28]	@ zero_extendqisi2
  42 0004 012C     		cmp	r4, #1
  43 0006 28D0     		beq	.L3
  44              		.loc 1 166 0 is_stmt 0 discriminator 2
  45 0008 0124     		movs	r4, #1
  46 000a 0477     		strb	r4, [r0, #28]
 167:Drivers/STM32F4xx_HAL_Driver/Src/stm32f4xx_hal_rtc_ex.c ****   
 168:Drivers/STM32F4xx_HAL_Driver/Src/stm32f4xx_hal_rtc_ex.c ****   hrtc->State = HAL_RTC_STATE_BUSY;
  47              		.loc 1 168 0 is_stmt 1 discriminator 2
  48 000c 0223     		movs	r3, #2
  49 000e 4377     		strb	r3, [r0, #29]
 169:Drivers/STM32F4xx_HAL_Driver/Src/stm32f4xx_hal_rtc_ex.c ****   
 170:Drivers/STM32F4xx_HAL_Driver/Src/stm32f4xx_hal_rtc_ex.c ****   /* Get the RTC_CR register and clear the bits to be configured */
 171:Drivers/STM32F4xx_HAL_Driver/Src/stm32f4xx_hal_rtc_ex.c ****   tmpreg = (uint32_t)(hrtc->Instance->CR & (uint32_t)~(RTC_CR_TSEDGE | RTC_CR_TSE));
  50              		.loc 1 171 0 discriminator 2
  51 0010 0568     		ldr	r5, [r0]
  52 0012 AB68     		ldr	r3, [r5, #8]
  53 0014 23F40063 		bic	r3, r3, #2048
  54 0018 23F00803 		bic	r3, r3, #8
  55              	.LVL2:
 172:Drivers/STM32F4xx_HAL_Driver/Src/stm32f4xx_hal_rtc_ex.c ****     
 173:Drivers/STM32F4xx_HAL_Driver/Src/stm32f4xx_hal_rtc_ex.c ****   tmpreg|= TimeStampEdge;
  56              		.loc 1 173 0 discriminator 2
ARM GAS  C:\Users\svcgu\AppData\Local\Temp\ccZ0uYCg.s 			page 5


  57 001c 0B43     		orrs	r3, r3, r1
  58              	.LVL3:
 174:Drivers/STM32F4xx_HAL_Driver/Src/stm32f4xx_hal_rtc_ex.c ****   
 175:Drivers/STM32F4xx_HAL_Driver/Src/stm32f4xx_hal_rtc_ex.c ****   /* Disable the write protection for RTC registers */
 176:Drivers/STM32F4xx_HAL_Driver/Src/stm32f4xx_hal_rtc_ex.c ****   __HAL_RTC_WRITEPROTECTION_DISABLE(hrtc);
  59              		.loc 1 176 0 discriminator 2
  60 001e CA21     		movs	r1, #202
  61              	.LVL4:
  62 0020 6962     		str	r1, [r5, #36]
  63 0022 0168     		ldr	r1, [r0]
  64 0024 5325     		movs	r5, #83
  65 0026 4D62     		str	r5, [r1, #36]
 177:Drivers/STM32F4xx_HAL_Driver/Src/stm32f4xx_hal_rtc_ex.c ****   
 178:Drivers/STM32F4xx_HAL_Driver/Src/stm32f4xx_hal_rtc_ex.c ****   hrtc->Instance->TAFCR &= (uint32_t)~RTC_TAFCR_TSINSEL;
  66              		.loc 1 178 0 discriminator 2
  67 0028 0568     		ldr	r5, [r0]
  68 002a 296C     		ldr	r1, [r5, #64]
  69 002c 21F40031 		bic	r1, r1, #131072
  70 0030 2964     		str	r1, [r5, #64]
 179:Drivers/STM32F4xx_HAL_Driver/Src/stm32f4xx_hal_rtc_ex.c ****   hrtc->Instance->TAFCR |= (uint32_t)(RTC_TimeStampPin); 
  71              		.loc 1 179 0 discriminator 2
  72 0032 0568     		ldr	r5, [r0]
  73 0034 296C     		ldr	r1, [r5, #64]
  74 0036 0A43     		orrs	r2, r2, r1
  75              	.LVL5:
  76 0038 2A64     		str	r2, [r5, #64]
 180:Drivers/STM32F4xx_HAL_Driver/Src/stm32f4xx_hal_rtc_ex.c ****   
 181:Drivers/STM32F4xx_HAL_Driver/Src/stm32f4xx_hal_rtc_ex.c ****   /* Configure the Time Stamp TSEDGE and Enable bits */
 182:Drivers/STM32F4xx_HAL_Driver/Src/stm32f4xx_hal_rtc_ex.c ****   hrtc->Instance->CR = (uint32_t)tmpreg;
  77              		.loc 1 182 0 discriminator 2
  78 003a 0268     		ldr	r2, [r0]
  79 003c 9360     		str	r3, [r2, #8]
 183:Drivers/STM32F4xx_HAL_Driver/Src/stm32f4xx_hal_rtc_ex.c ****   
 184:Drivers/STM32F4xx_HAL_Driver/Src/stm32f4xx_hal_rtc_ex.c ****   __HAL_RTC_TIMESTAMP_ENABLE(hrtc);
  80              		.loc 1 184 0 discriminator 2
  81 003e 0268     		ldr	r2, [r0]
  82 0040 9368     		ldr	r3, [r2, #8]
  83              	.LVL6:
  84 0042 43F40063 		orr	r3, r3, #2048
  85 0046 9360     		str	r3, [r2, #8]
 185:Drivers/STM32F4xx_HAL_Driver/Src/stm32f4xx_hal_rtc_ex.c ****   
 186:Drivers/STM32F4xx_HAL_Driver/Src/stm32f4xx_hal_rtc_ex.c ****   /* Enable the write protection for RTC registers */
 187:Drivers/STM32F4xx_HAL_Driver/Src/stm32f4xx_hal_rtc_ex.c ****   __HAL_RTC_WRITEPROTECTION_ENABLE(hrtc);    
  86              		.loc 1 187 0 discriminator 2
  87 0048 0368     		ldr	r3, [r0]
  88 004a FF22     		movs	r2, #255
  89 004c 5A62     		str	r2, [r3, #36]
 188:Drivers/STM32F4xx_HAL_Driver/Src/stm32f4xx_hal_rtc_ex.c ****   
 189:Drivers/STM32F4xx_HAL_Driver/Src/stm32f4xx_hal_rtc_ex.c ****   /* Change RTC state */
 190:Drivers/STM32F4xx_HAL_Driver/Src/stm32f4xx_hal_rtc_ex.c ****   hrtc->State = HAL_RTC_STATE_READY; 
  90              		.loc 1 190 0 discriminator 2
  91 004e 4477     		strb	r4, [r0, #29]
 191:Drivers/STM32F4xx_HAL_Driver/Src/stm32f4xx_hal_rtc_ex.c ****   
 192:Drivers/STM32F4xx_HAL_Driver/Src/stm32f4xx_hal_rtc_ex.c ****   /* Process Unlocked */ 
 193:Drivers/STM32F4xx_HAL_Driver/Src/stm32f4xx_hal_rtc_ex.c ****   __HAL_UNLOCK(hrtc);
  92              		.loc 1 193 0 discriminator 2
  93 0050 0023     		movs	r3, #0
ARM GAS  C:\Users\svcgu\AppData\Local\Temp\ccZ0uYCg.s 			page 6


  94 0052 0377     		strb	r3, [r0, #28]
 194:Drivers/STM32F4xx_HAL_Driver/Src/stm32f4xx_hal_rtc_ex.c ****   
 195:Drivers/STM32F4xx_HAL_Driver/Src/stm32f4xx_hal_rtc_ex.c ****   return HAL_OK;
  95              		.loc 1 195 0 discriminator 2
  96 0054 1846     		mov	r0, r3
  97              	.LVL7:
  98              	.L2:
 196:Drivers/STM32F4xx_HAL_Driver/Src/stm32f4xx_hal_rtc_ex.c **** }
  99              		.loc 1 196 0
 100 0056 30BC     		pop	{r4, r5}
 101              	.LCFI1:
 102              		.cfi_remember_state
 103              		.cfi_restore 5
 104              		.cfi_restore 4
 105              		.cfi_def_cfa_offset 0
 106 0058 7047     		bx	lr
 107              	.LVL8:
 108              	.L3:
 109              	.LCFI2:
 110              		.cfi_restore_state
 166:Drivers/STM32F4xx_HAL_Driver/Src/stm32f4xx_hal_rtc_ex.c ****   
 111              		.loc 1 166 0
 112 005a 0220     		movs	r0, #2
 113              	.LVL9:
 114 005c FBE7     		b	.L2
 115              		.cfi_endproc
 116              	.LFE124:
 118              		.section	.text.HAL_RTCEx_SetTimeStamp_IT,"ax",%progbits
 119              		.align	1
 120              		.global	HAL_RTCEx_SetTimeStamp_IT
 121              		.syntax unified
 122              		.thumb
 123              		.thumb_func
 124              		.fpu fpv4-sp-d16
 126              	HAL_RTCEx_SetTimeStamp_IT:
 127              	.LFB125:
 197:Drivers/STM32F4xx_HAL_Driver/Src/stm32f4xx_hal_rtc_ex.c **** 
 198:Drivers/STM32F4xx_HAL_Driver/Src/stm32f4xx_hal_rtc_ex.c **** /**
 199:Drivers/STM32F4xx_HAL_Driver/Src/stm32f4xx_hal_rtc_ex.c ****   * @brief  Sets TimeStamp with Interrupt. 
 200:Drivers/STM32F4xx_HAL_Driver/Src/stm32f4xx_hal_rtc_ex.c ****   * @param  hrtc pointer to a RTC_HandleTypeDef structure that contains
 201:Drivers/STM32F4xx_HAL_Driver/Src/stm32f4xx_hal_rtc_ex.c ****   *                the configuration information for RTC.
 202:Drivers/STM32F4xx_HAL_Driver/Src/stm32f4xx_hal_rtc_ex.c ****   * @note   This API must be called before enabling the TimeStamp feature.
 203:Drivers/STM32F4xx_HAL_Driver/Src/stm32f4xx_hal_rtc_ex.c ****   * @param  TimeStampEdge Specifies the pin edge on which the TimeStamp is 
 204:Drivers/STM32F4xx_HAL_Driver/Src/stm32f4xx_hal_rtc_ex.c ****   *         activated.
 205:Drivers/STM32F4xx_HAL_Driver/Src/stm32f4xx_hal_rtc_ex.c ****   *          This parameter can be one of the following values:
 206:Drivers/STM32F4xx_HAL_Driver/Src/stm32f4xx_hal_rtc_ex.c ****   *             @arg RTC_TIMESTAMPEDGE_RISING: the Time stamp event occurs on the  
 207:Drivers/STM32F4xx_HAL_Driver/Src/stm32f4xx_hal_rtc_ex.c ****   *                                        rising edge of the related pin.
 208:Drivers/STM32F4xx_HAL_Driver/Src/stm32f4xx_hal_rtc_ex.c ****   *             @arg RTC_TIMESTAMPEDGE_FALLING: the Time stamp event occurs on the 
 209:Drivers/STM32F4xx_HAL_Driver/Src/stm32f4xx_hal_rtc_ex.c ****   *                                         falling edge of the related pin.
 210:Drivers/STM32F4xx_HAL_Driver/Src/stm32f4xx_hal_rtc_ex.c ****   * @param  RTC_TimeStampPin Specifies the RTC TimeStamp Pin.
 211:Drivers/STM32F4xx_HAL_Driver/Src/stm32f4xx_hal_rtc_ex.c ****   *          This parameter can be one of the following values:
 212:Drivers/STM32F4xx_HAL_Driver/Src/stm32f4xx_hal_rtc_ex.c ****   *             @arg RTC_TIMESTAMPPIN_DEFAULT: PC13 is selected as RTC TimeStamp Pin.
 213:Drivers/STM32F4xx_HAL_Driver/Src/stm32f4xx_hal_rtc_ex.c ****   *             @arg RTC_TIMESTAMPPIN_PI8: PI8 is selected as RTC TimeStamp Pin. (not applicable in
 214:Drivers/STM32F4xx_HAL_Driver/Src/stm32f4xx_hal_rtc_ex.c ****   *             @arg RTC_TIMESTAMPPIN_PA0: PA0 is selected as RTC TimeStamp Pin only for STM32F446x
 215:Drivers/STM32F4xx_HAL_Driver/Src/stm32f4xx_hal_rtc_ex.c ****   * @retval HAL status
 216:Drivers/STM32F4xx_HAL_Driver/Src/stm32f4xx_hal_rtc_ex.c ****   */
 217:Drivers/STM32F4xx_HAL_Driver/Src/stm32f4xx_hal_rtc_ex.c **** HAL_StatusTypeDef HAL_RTCEx_SetTimeStamp_IT(RTC_HandleTypeDef *hrtc, uint32_t TimeStampEdge, uint32
ARM GAS  C:\Users\svcgu\AppData\Local\Temp\ccZ0uYCg.s 			page 7


 218:Drivers/STM32F4xx_HAL_Driver/Src/stm32f4xx_hal_rtc_ex.c **** {
 128              		.loc 1 218 0
 129              		.cfi_startproc
 130              		@ args = 0, pretend = 0, frame = 0
 131              		@ frame_needed = 0, uses_anonymous_args = 0
 132              		@ link register save eliminated.
 133              	.LVL10:
 134 0000 30B4     		push	{r4, r5}
 135              	.LCFI3:
 136              		.cfi_def_cfa_offset 8
 137              		.cfi_offset 4, -8
 138              		.cfi_offset 5, -4
 139              	.LVL11:
 219:Drivers/STM32F4xx_HAL_Driver/Src/stm32f4xx_hal_rtc_ex.c ****   uint32_t tmpreg = 0U;
 220:Drivers/STM32F4xx_HAL_Driver/Src/stm32f4xx_hal_rtc_ex.c ****   
 221:Drivers/STM32F4xx_HAL_Driver/Src/stm32f4xx_hal_rtc_ex.c ****   /* Check the parameters */
 222:Drivers/STM32F4xx_HAL_Driver/Src/stm32f4xx_hal_rtc_ex.c ****   assert_param(IS_TIMESTAMP_EDGE(TimeStampEdge));
 223:Drivers/STM32F4xx_HAL_Driver/Src/stm32f4xx_hal_rtc_ex.c ****   assert_param(IS_RTC_TIMESTAMP_PIN(RTC_TimeStampPin));
 224:Drivers/STM32F4xx_HAL_Driver/Src/stm32f4xx_hal_rtc_ex.c ****   
 225:Drivers/STM32F4xx_HAL_Driver/Src/stm32f4xx_hal_rtc_ex.c ****   /* Process Locked */ 
 226:Drivers/STM32F4xx_HAL_Driver/Src/stm32f4xx_hal_rtc_ex.c ****   __HAL_LOCK(hrtc);
 140              		.loc 1 226 0
 141 0002 047F     		ldrb	r4, [r0, #28]	@ zero_extendqisi2
 142 0004 012C     		cmp	r4, #1
 143 0006 3CD0     		beq	.L7
 144              		.loc 1 226 0 is_stmt 0 discriminator 2
 145 0008 0124     		movs	r4, #1
 146 000a 0477     		strb	r4, [r0, #28]
 227:Drivers/STM32F4xx_HAL_Driver/Src/stm32f4xx_hal_rtc_ex.c ****   
 228:Drivers/STM32F4xx_HAL_Driver/Src/stm32f4xx_hal_rtc_ex.c ****   hrtc->State = HAL_RTC_STATE_BUSY;
 147              		.loc 1 228 0 is_stmt 1 discriminator 2
 148 000c 0223     		movs	r3, #2
 149 000e 4377     		strb	r3, [r0, #29]
 229:Drivers/STM32F4xx_HAL_Driver/Src/stm32f4xx_hal_rtc_ex.c ****   
 230:Drivers/STM32F4xx_HAL_Driver/Src/stm32f4xx_hal_rtc_ex.c ****   /* Get the RTC_CR register and clear the bits to be configured */
 231:Drivers/STM32F4xx_HAL_Driver/Src/stm32f4xx_hal_rtc_ex.c ****   tmpreg = (uint32_t)(hrtc->Instance->CR & (uint32_t)~(RTC_CR_TSEDGE | RTC_CR_TSE));
 150              		.loc 1 231 0 discriminator 2
 151 0010 0568     		ldr	r5, [r0]
 152 0012 AB68     		ldr	r3, [r5, #8]
 153 0014 23F40063 		bic	r3, r3, #2048
 154 0018 23F00803 		bic	r3, r3, #8
 155              	.LVL12:
 232:Drivers/STM32F4xx_HAL_Driver/Src/stm32f4xx_hal_rtc_ex.c ****   
 233:Drivers/STM32F4xx_HAL_Driver/Src/stm32f4xx_hal_rtc_ex.c ****   tmpreg |= TimeStampEdge;
 156              		.loc 1 233 0 discriminator 2
 157 001c 0B43     		orrs	r3, r3, r1
 158              	.LVL13:
 234:Drivers/STM32F4xx_HAL_Driver/Src/stm32f4xx_hal_rtc_ex.c ****   
 235:Drivers/STM32F4xx_HAL_Driver/Src/stm32f4xx_hal_rtc_ex.c ****   /* Disable the write protection for RTC registers */
 236:Drivers/STM32F4xx_HAL_Driver/Src/stm32f4xx_hal_rtc_ex.c ****   __HAL_RTC_WRITEPROTECTION_DISABLE(hrtc);
 159              		.loc 1 236 0 discriminator 2
 160 001e CA21     		movs	r1, #202
 161              	.LVL14:
 162 0020 6962     		str	r1, [r5, #36]
 163 0022 0168     		ldr	r1, [r0]
 164 0024 5325     		movs	r5, #83
 165 0026 4D62     		str	r5, [r1, #36]
ARM GAS  C:\Users\svcgu\AppData\Local\Temp\ccZ0uYCg.s 			page 8


 237:Drivers/STM32F4xx_HAL_Driver/Src/stm32f4xx_hal_rtc_ex.c ****   
 238:Drivers/STM32F4xx_HAL_Driver/Src/stm32f4xx_hal_rtc_ex.c ****   /* Configure the Time Stamp TSEDGE and Enable bits */
 239:Drivers/STM32F4xx_HAL_Driver/Src/stm32f4xx_hal_rtc_ex.c ****   hrtc->Instance->CR = (uint32_t)tmpreg;
 166              		.loc 1 239 0 discriminator 2
 167 0028 0168     		ldr	r1, [r0]
 168 002a 8B60     		str	r3, [r1, #8]
 240:Drivers/STM32F4xx_HAL_Driver/Src/stm32f4xx_hal_rtc_ex.c ****   
 241:Drivers/STM32F4xx_HAL_Driver/Src/stm32f4xx_hal_rtc_ex.c ****   hrtc->Instance->TAFCR &= (uint32_t)~RTC_TAFCR_TSINSEL;
 169              		.loc 1 241 0 discriminator 2
 170 002c 0168     		ldr	r1, [r0]
 171 002e 0B6C     		ldr	r3, [r1, #64]
 172              	.LVL15:
 173 0030 23F40033 		bic	r3, r3, #131072
 174 0034 0B64     		str	r3, [r1, #64]
 242:Drivers/STM32F4xx_HAL_Driver/Src/stm32f4xx_hal_rtc_ex.c ****   hrtc->Instance->TAFCR |= (uint32_t)(RTC_TimeStampPin); 
 175              		.loc 1 242 0 discriminator 2
 176 0036 0168     		ldr	r1, [r0]
 177 0038 0B6C     		ldr	r3, [r1, #64]
 178 003a 1A43     		orrs	r2, r2, r3
 179              	.LVL16:
 180 003c 0A64     		str	r2, [r1, #64]
 243:Drivers/STM32F4xx_HAL_Driver/Src/stm32f4xx_hal_rtc_ex.c **** 
 244:Drivers/STM32F4xx_HAL_Driver/Src/stm32f4xx_hal_rtc_ex.c ****   /* Clear RTC Timestamp flag */
 245:Drivers/STM32F4xx_HAL_Driver/Src/stm32f4xx_hal_rtc_ex.c ****   __HAL_RTC_TIMESTAMP_CLEAR_FLAG(hrtc, RTC_FLAG_TSF);
 181              		.loc 1 245 0 discriminator 2
 182 003e 0268     		ldr	r2, [r0]
 183 0040 D368     		ldr	r3, [r2, #12]
 184 0042 DBB2     		uxtb	r3, r3
 185 0044 63F40863 		orn	r3, r3, #2176
 186 0048 D360     		str	r3, [r2, #12]
 246:Drivers/STM32F4xx_HAL_Driver/Src/stm32f4xx_hal_rtc_ex.c **** 
 247:Drivers/STM32F4xx_HAL_Driver/Src/stm32f4xx_hal_rtc_ex.c ****   __HAL_RTC_TIMESTAMP_ENABLE(hrtc);
 187              		.loc 1 247 0 discriminator 2
 188 004a 0268     		ldr	r2, [r0]
 189 004c 9368     		ldr	r3, [r2, #8]
 190 004e 43F40063 		orr	r3, r3, #2048
 191 0052 9360     		str	r3, [r2, #8]
 248:Drivers/STM32F4xx_HAL_Driver/Src/stm32f4xx_hal_rtc_ex.c ****   
 249:Drivers/STM32F4xx_HAL_Driver/Src/stm32f4xx_hal_rtc_ex.c ****   /* Enable IT timestamp */ 
 250:Drivers/STM32F4xx_HAL_Driver/Src/stm32f4xx_hal_rtc_ex.c ****   __HAL_RTC_TIMESTAMP_ENABLE_IT(hrtc,RTC_IT_TS);
 192              		.loc 1 250 0 discriminator 2
 193 0054 0268     		ldr	r2, [r0]
 194 0056 9368     		ldr	r3, [r2, #8]
 195 0058 43F40043 		orr	r3, r3, #32768
 196 005c 9360     		str	r3, [r2, #8]
 251:Drivers/STM32F4xx_HAL_Driver/Src/stm32f4xx_hal_rtc_ex.c ****   
 252:Drivers/STM32F4xx_HAL_Driver/Src/stm32f4xx_hal_rtc_ex.c ****   /* RTC timestamp Interrupt Configuration: EXTI configuration */
 253:Drivers/STM32F4xx_HAL_Driver/Src/stm32f4xx_hal_rtc_ex.c ****   __HAL_RTC_TAMPER_TIMESTAMP_EXTI_ENABLE_IT();
 197              		.loc 1 253 0 discriminator 2
 198 005e 0A4B     		ldr	r3, .L9
 199 0060 1A68     		ldr	r2, [r3]
 200 0062 42F40012 		orr	r2, r2, #2097152
 201 0066 1A60     		str	r2, [r3]
 254:Drivers/STM32F4xx_HAL_Driver/Src/stm32f4xx_hal_rtc_ex.c ****   
 255:Drivers/STM32F4xx_HAL_Driver/Src/stm32f4xx_hal_rtc_ex.c ****   EXTI->RTSR |= RTC_EXTI_LINE_TAMPER_TIMESTAMP_EVENT;
 202              		.loc 1 255 0 discriminator 2
 203 0068 9A68     		ldr	r2, [r3, #8]
ARM GAS  C:\Users\svcgu\AppData\Local\Temp\ccZ0uYCg.s 			page 9


 204 006a 42F40012 		orr	r2, r2, #2097152
 205 006e 9A60     		str	r2, [r3, #8]
 256:Drivers/STM32F4xx_HAL_Driver/Src/stm32f4xx_hal_rtc_ex.c ****   
 257:Drivers/STM32F4xx_HAL_Driver/Src/stm32f4xx_hal_rtc_ex.c ****   /* Enable the write protection for RTC registers */
 258:Drivers/STM32F4xx_HAL_Driver/Src/stm32f4xx_hal_rtc_ex.c ****   __HAL_RTC_WRITEPROTECTION_ENABLE(hrtc);  
 206              		.loc 1 258 0 discriminator 2
 207 0070 0368     		ldr	r3, [r0]
 208 0072 FF22     		movs	r2, #255
 209 0074 5A62     		str	r2, [r3, #36]
 259:Drivers/STM32F4xx_HAL_Driver/Src/stm32f4xx_hal_rtc_ex.c ****   
 260:Drivers/STM32F4xx_HAL_Driver/Src/stm32f4xx_hal_rtc_ex.c ****   hrtc->State = HAL_RTC_STATE_READY;  
 210              		.loc 1 260 0 discriminator 2
 211 0076 4477     		strb	r4, [r0, #29]
 261:Drivers/STM32F4xx_HAL_Driver/Src/stm32f4xx_hal_rtc_ex.c ****   
 262:Drivers/STM32F4xx_HAL_Driver/Src/stm32f4xx_hal_rtc_ex.c ****   /* Process Unlocked */ 
 263:Drivers/STM32F4xx_HAL_Driver/Src/stm32f4xx_hal_rtc_ex.c ****   __HAL_UNLOCK(hrtc);
 212              		.loc 1 263 0 discriminator 2
 213 0078 0023     		movs	r3, #0
 214 007a 0377     		strb	r3, [r0, #28]
 264:Drivers/STM32F4xx_HAL_Driver/Src/stm32f4xx_hal_rtc_ex.c ****   
 265:Drivers/STM32F4xx_HAL_Driver/Src/stm32f4xx_hal_rtc_ex.c ****   return HAL_OK;
 215              		.loc 1 265 0 discriminator 2
 216 007c 1846     		mov	r0, r3
 217              	.LVL17:
 218              	.L6:
 266:Drivers/STM32F4xx_HAL_Driver/Src/stm32f4xx_hal_rtc_ex.c **** }
 219              		.loc 1 266 0
 220 007e 30BC     		pop	{r4, r5}
 221              	.LCFI4:
 222              		.cfi_remember_state
 223              		.cfi_restore 5
 224              		.cfi_restore 4
 225              		.cfi_def_cfa_offset 0
 226 0080 7047     		bx	lr
 227              	.LVL18:
 228              	.L7:
 229              	.LCFI5:
 230              		.cfi_restore_state
 226:Drivers/STM32F4xx_HAL_Driver/Src/stm32f4xx_hal_rtc_ex.c ****   
 231              		.loc 1 226 0
 232 0082 0220     		movs	r0, #2
 233              	.LVL19:
 234 0084 FBE7     		b	.L6
 235              	.L10:
 236 0086 00BF     		.align	2
 237              	.L9:
 238 0088 003C0140 		.word	1073822720
 239              		.cfi_endproc
 240              	.LFE125:
 242              		.section	.text.HAL_RTCEx_DeactivateTimeStamp,"ax",%progbits
 243              		.align	1
 244              		.global	HAL_RTCEx_DeactivateTimeStamp
 245              		.syntax unified
 246              		.thumb
 247              		.thumb_func
 248              		.fpu fpv4-sp-d16
 250              	HAL_RTCEx_DeactivateTimeStamp:
ARM GAS  C:\Users\svcgu\AppData\Local\Temp\ccZ0uYCg.s 			page 10


 251              	.LFB126:
 267:Drivers/STM32F4xx_HAL_Driver/Src/stm32f4xx_hal_rtc_ex.c **** 
 268:Drivers/STM32F4xx_HAL_Driver/Src/stm32f4xx_hal_rtc_ex.c **** /**
 269:Drivers/STM32F4xx_HAL_Driver/Src/stm32f4xx_hal_rtc_ex.c ****   * @brief  Deactivates TimeStamp. 
 270:Drivers/STM32F4xx_HAL_Driver/Src/stm32f4xx_hal_rtc_ex.c ****   * @param  hrtc pointer to a RTC_HandleTypeDef structure that contains
 271:Drivers/STM32F4xx_HAL_Driver/Src/stm32f4xx_hal_rtc_ex.c ****   *                the configuration information for RTC.
 272:Drivers/STM32F4xx_HAL_Driver/Src/stm32f4xx_hal_rtc_ex.c ****   * @retval HAL status
 273:Drivers/STM32F4xx_HAL_Driver/Src/stm32f4xx_hal_rtc_ex.c ****   */
 274:Drivers/STM32F4xx_HAL_Driver/Src/stm32f4xx_hal_rtc_ex.c **** HAL_StatusTypeDef HAL_RTCEx_DeactivateTimeStamp(RTC_HandleTypeDef *hrtc)
 275:Drivers/STM32F4xx_HAL_Driver/Src/stm32f4xx_hal_rtc_ex.c **** {
 252              		.loc 1 275 0
 253              		.cfi_startproc
 254              		@ args = 0, pretend = 0, frame = 0
 255              		@ frame_needed = 0, uses_anonymous_args = 0
 256              		@ link register save eliminated.
 257              	.LVL20:
 276:Drivers/STM32F4xx_HAL_Driver/Src/stm32f4xx_hal_rtc_ex.c ****   uint32_t tmpreg = 0U;
 277:Drivers/STM32F4xx_HAL_Driver/Src/stm32f4xx_hal_rtc_ex.c ****   
 278:Drivers/STM32F4xx_HAL_Driver/Src/stm32f4xx_hal_rtc_ex.c ****   /* Process Locked */ 
 279:Drivers/STM32F4xx_HAL_Driver/Src/stm32f4xx_hal_rtc_ex.c ****   __HAL_LOCK(hrtc);
 258              		.loc 1 279 0
 259 0000 037F     		ldrb	r3, [r0, #28]	@ zero_extendqisi2
 260 0002 012B     		cmp	r3, #1
 261 0004 1DD0     		beq	.L13
 262              		.loc 1 279 0 is_stmt 0 discriminator 2
 263 0006 0122     		movs	r2, #1
 264 0008 0277     		strb	r2, [r0, #28]
 280:Drivers/STM32F4xx_HAL_Driver/Src/stm32f4xx_hal_rtc_ex.c ****   
 281:Drivers/STM32F4xx_HAL_Driver/Src/stm32f4xx_hal_rtc_ex.c ****   hrtc->State = HAL_RTC_STATE_BUSY;
 265              		.loc 1 281 0 is_stmt 1 discriminator 2
 266 000a 0223     		movs	r3, #2
 267 000c 4377     		strb	r3, [r0, #29]
 282:Drivers/STM32F4xx_HAL_Driver/Src/stm32f4xx_hal_rtc_ex.c ****   
 283:Drivers/STM32F4xx_HAL_Driver/Src/stm32f4xx_hal_rtc_ex.c ****   /* Disable the write protection for RTC registers */
 284:Drivers/STM32F4xx_HAL_Driver/Src/stm32f4xx_hal_rtc_ex.c ****   __HAL_RTC_WRITEPROTECTION_DISABLE(hrtc);
 268              		.loc 1 284 0 discriminator 2
 269 000e 0368     		ldr	r3, [r0]
 270 0010 CA21     		movs	r1, #202
 271 0012 5962     		str	r1, [r3, #36]
 272 0014 0368     		ldr	r3, [r0]
 273 0016 5321     		movs	r1, #83
 274 0018 5962     		str	r1, [r3, #36]
 285:Drivers/STM32F4xx_HAL_Driver/Src/stm32f4xx_hal_rtc_ex.c ****   
 286:Drivers/STM32F4xx_HAL_Driver/Src/stm32f4xx_hal_rtc_ex.c ****   /* In case of interrupt mode is used, the interrupt source must disabled */ 
 287:Drivers/STM32F4xx_HAL_Driver/Src/stm32f4xx_hal_rtc_ex.c ****   __HAL_RTC_TIMESTAMP_DISABLE_IT(hrtc, RTC_IT_TS);
 275              		.loc 1 287 0 discriminator 2
 276 001a 0168     		ldr	r1, [r0]
 277 001c 8B68     		ldr	r3, [r1, #8]
 278 001e 23F40043 		bic	r3, r3, #32768
 279 0022 8B60     		str	r3, [r1, #8]
 288:Drivers/STM32F4xx_HAL_Driver/Src/stm32f4xx_hal_rtc_ex.c ****   
 289:Drivers/STM32F4xx_HAL_Driver/Src/stm32f4xx_hal_rtc_ex.c ****   /* Get the RTC_CR register and clear the bits to be configured */
 290:Drivers/STM32F4xx_HAL_Driver/Src/stm32f4xx_hal_rtc_ex.c ****   tmpreg = (uint32_t)(hrtc->Instance->CR & (uint32_t)~(RTC_CR_TSEDGE | RTC_CR_TSE));
 280              		.loc 1 290 0 discriminator 2
 281 0024 0168     		ldr	r1, [r0]
 282 0026 8B68     		ldr	r3, [r1, #8]
 283 0028 23F40063 		bic	r3, r3, #2048
ARM GAS  C:\Users\svcgu\AppData\Local\Temp\ccZ0uYCg.s 			page 11


 284 002c 23F00803 		bic	r3, r3, #8
 285              	.LVL21:
 291:Drivers/STM32F4xx_HAL_Driver/Src/stm32f4xx_hal_rtc_ex.c ****   
 292:Drivers/STM32F4xx_HAL_Driver/Src/stm32f4xx_hal_rtc_ex.c ****   /* Configure the Time Stamp TSEDGE and Enable bits */
 293:Drivers/STM32F4xx_HAL_Driver/Src/stm32f4xx_hal_rtc_ex.c ****   hrtc->Instance->CR = (uint32_t)tmpreg;
 286              		.loc 1 293 0 discriminator 2
 287 0030 8B60     		str	r3, [r1, #8]
 294:Drivers/STM32F4xx_HAL_Driver/Src/stm32f4xx_hal_rtc_ex.c ****   
 295:Drivers/STM32F4xx_HAL_Driver/Src/stm32f4xx_hal_rtc_ex.c ****   /* Enable the write protection for RTC registers */
 296:Drivers/STM32F4xx_HAL_Driver/Src/stm32f4xx_hal_rtc_ex.c ****   __HAL_RTC_WRITEPROTECTION_ENABLE(hrtc);
 288              		.loc 1 296 0 discriminator 2
 289 0032 0368     		ldr	r3, [r0]
 290              	.LVL22:
 291 0034 FF21     		movs	r1, #255
 292              	.LVL23:
 293 0036 5962     		str	r1, [r3, #36]
 297:Drivers/STM32F4xx_HAL_Driver/Src/stm32f4xx_hal_rtc_ex.c ****  
 298:Drivers/STM32F4xx_HAL_Driver/Src/stm32f4xx_hal_rtc_ex.c ****   hrtc->State = HAL_RTC_STATE_READY;  
 294              		.loc 1 298 0 discriminator 2
 295 0038 4277     		strb	r2, [r0, #29]
 299:Drivers/STM32F4xx_HAL_Driver/Src/stm32f4xx_hal_rtc_ex.c ****   
 300:Drivers/STM32F4xx_HAL_Driver/Src/stm32f4xx_hal_rtc_ex.c ****   /* Process Unlocked */ 
 301:Drivers/STM32F4xx_HAL_Driver/Src/stm32f4xx_hal_rtc_ex.c ****   __HAL_UNLOCK(hrtc);
 296              		.loc 1 301 0 discriminator 2
 297 003a 0023     		movs	r3, #0
 298 003c 0377     		strb	r3, [r0, #28]
 302:Drivers/STM32F4xx_HAL_Driver/Src/stm32f4xx_hal_rtc_ex.c ****   
 303:Drivers/STM32F4xx_HAL_Driver/Src/stm32f4xx_hal_rtc_ex.c ****   return HAL_OK;
 299              		.loc 1 303 0 discriminator 2
 300 003e 1846     		mov	r0, r3
 301              	.LVL24:
 302 0040 7047     		bx	lr
 303              	.LVL25:
 304              	.L13:
 279:Drivers/STM32F4xx_HAL_Driver/Src/stm32f4xx_hal_rtc_ex.c ****   
 305              		.loc 1 279 0
 306 0042 0220     		movs	r0, #2
 307              	.LVL26:
 304:Drivers/STM32F4xx_HAL_Driver/Src/stm32f4xx_hal_rtc_ex.c **** }
 308              		.loc 1 304 0
 309 0044 7047     		bx	lr
 310              		.cfi_endproc
 311              	.LFE126:
 313              		.section	.text.HAL_RTCEx_GetTimeStamp,"ax",%progbits
 314              		.align	1
 315              		.global	HAL_RTCEx_GetTimeStamp
 316              		.syntax unified
 317              		.thumb
 318              		.thumb_func
 319              		.fpu fpv4-sp-d16
 321              	HAL_RTCEx_GetTimeStamp:
 322              	.LFB127:
 305:Drivers/STM32F4xx_HAL_Driver/Src/stm32f4xx_hal_rtc_ex.c **** 
 306:Drivers/STM32F4xx_HAL_Driver/Src/stm32f4xx_hal_rtc_ex.c **** /**
 307:Drivers/STM32F4xx_HAL_Driver/Src/stm32f4xx_hal_rtc_ex.c ****   * @brief  Gets the RTC TimeStamp value.
 308:Drivers/STM32F4xx_HAL_Driver/Src/stm32f4xx_hal_rtc_ex.c ****   * @param  hrtc pointer to a RTC_HandleTypeDef structure that contains
 309:Drivers/STM32F4xx_HAL_Driver/Src/stm32f4xx_hal_rtc_ex.c ****   *                the configuration information for RTC.
ARM GAS  C:\Users\svcgu\AppData\Local\Temp\ccZ0uYCg.s 			page 12


 310:Drivers/STM32F4xx_HAL_Driver/Src/stm32f4xx_hal_rtc_ex.c ****   * @param  sTimeStamp Pointer to Time structure
 311:Drivers/STM32F4xx_HAL_Driver/Src/stm32f4xx_hal_rtc_ex.c ****   * @param  sTimeStampDate Pointer to Date structure  
 312:Drivers/STM32F4xx_HAL_Driver/Src/stm32f4xx_hal_rtc_ex.c ****   * @param  Format specifies the format of the entered parameters.
 313:Drivers/STM32F4xx_HAL_Driver/Src/stm32f4xx_hal_rtc_ex.c ****   *          This parameter can be one of the following values:
 314:Drivers/STM32F4xx_HAL_Driver/Src/stm32f4xx_hal_rtc_ex.c ****   *             RTC_FORMAT_BIN: Binary data format 
 315:Drivers/STM32F4xx_HAL_Driver/Src/stm32f4xx_hal_rtc_ex.c ****   *             RTC_FORMAT_BCD: BCD data format
 316:Drivers/STM32F4xx_HAL_Driver/Src/stm32f4xx_hal_rtc_ex.c ****   * @retval HAL status
 317:Drivers/STM32F4xx_HAL_Driver/Src/stm32f4xx_hal_rtc_ex.c ****   */
 318:Drivers/STM32F4xx_HAL_Driver/Src/stm32f4xx_hal_rtc_ex.c **** HAL_StatusTypeDef HAL_RTCEx_GetTimeStamp(RTC_HandleTypeDef *hrtc, RTC_TimeTypeDef* sTimeStamp, RTC_
 319:Drivers/STM32F4xx_HAL_Driver/Src/stm32f4xx_hal_rtc_ex.c **** {
 323              		.loc 1 319 0
 324              		.cfi_startproc
 325              		@ args = 0, pretend = 0, frame = 0
 326              		@ frame_needed = 0, uses_anonymous_args = 0
 327              	.LVL27:
 328 0000 F8B5     		push	{r3, r4, r5, r6, r7, lr}
 329              	.LCFI6:
 330              		.cfi_def_cfa_offset 24
 331              		.cfi_offset 3, -24
 332              		.cfi_offset 4, -20
 333              		.cfi_offset 5, -16
 334              		.cfi_offset 6, -12
 335              		.cfi_offset 7, -8
 336              		.cfi_offset 14, -4
 337 0002 0646     		mov	r6, r0
 338 0004 0C46     		mov	r4, r1
 339 0006 1546     		mov	r5, r2
 340              	.LVL28:
 320:Drivers/STM32F4xx_HAL_Driver/Src/stm32f4xx_hal_rtc_ex.c ****   uint32_t tmptime = 0U, tmpdate = 0U;
 321:Drivers/STM32F4xx_HAL_Driver/Src/stm32f4xx_hal_rtc_ex.c **** 
 322:Drivers/STM32F4xx_HAL_Driver/Src/stm32f4xx_hal_rtc_ex.c ****   /* Check the parameters */
 323:Drivers/STM32F4xx_HAL_Driver/Src/stm32f4xx_hal_rtc_ex.c ****   assert_param(IS_RTC_FORMAT(Format));
 324:Drivers/STM32F4xx_HAL_Driver/Src/stm32f4xx_hal_rtc_ex.c **** 
 325:Drivers/STM32F4xx_HAL_Driver/Src/stm32f4xx_hal_rtc_ex.c ****   /* Get the TimeStamp time and date registers values */
 326:Drivers/STM32F4xx_HAL_Driver/Src/stm32f4xx_hal_rtc_ex.c ****   tmptime = (uint32_t)(hrtc->Instance->TSTR & RTC_TR_RESERVED_MASK);
 341              		.loc 1 326 0
 342 0008 0268     		ldr	r2, [r0]
 343              	.LVL29:
 344 000a 116B     		ldr	r1, [r2, #48]
 345              	.LVL30:
 346 000c 01F07F31 		and	r1, r1, #2139062143
 347 0010 21F0FE41 		bic	r1, r1, #2130706432
 348              	.LVL31:
 327:Drivers/STM32F4xx_HAL_Driver/Src/stm32f4xx_hal_rtc_ex.c ****   tmpdate = (uint32_t)(hrtc->Instance->TSDR & RTC_DR_RESERVED_MASK);
 349              		.loc 1 327 0
 350 0014 526B     		ldr	r2, [r2, #52]
 351 0016 22F07F42 		bic	r2, r2, #-16777216
 352 001a 22F0C002 		bic	r2, r2, #192
 353              	.LVL32:
 328:Drivers/STM32F4xx_HAL_Driver/Src/stm32f4xx_hal_rtc_ex.c **** 
 329:Drivers/STM32F4xx_HAL_Driver/Src/stm32f4xx_hal_rtc_ex.c ****   /* Fill the Time structure fields with the read parameters */
 330:Drivers/STM32F4xx_HAL_Driver/Src/stm32f4xx_hal_rtc_ex.c ****   sTimeStamp->Hours = (uint8_t)((tmptime & (RTC_TR_HT | RTC_TR_HU)) >> 16U);
 354              		.loc 1 330 0
 355 001e 080C     		lsrs	r0, r1, #16
 356              	.LVL33:
 357 0020 00F03F07 		and	r7, r0, #63
 358 0024 2770     		strb	r7, [r4]
ARM GAS  C:\Users\svcgu\AppData\Local\Temp\ccZ0uYCg.s 			page 13


 331:Drivers/STM32F4xx_HAL_Driver/Src/stm32f4xx_hal_rtc_ex.c ****   sTimeStamp->Minutes = (uint8_t)((tmptime & (RTC_TR_MNT | RTC_TR_MNU)) >> 8U);
 359              		.loc 1 331 0
 360 0026 C1F30627 		ubfx	r7, r1, #8, #7
 361 002a 6770     		strb	r7, [r4, #1]
 332:Drivers/STM32F4xx_HAL_Driver/Src/stm32f4xx_hal_rtc_ex.c ****   sTimeStamp->Seconds = (uint8_t)(tmptime & (RTC_TR_ST | RTC_TR_SU));
 362              		.loc 1 332 0
 363 002c A170     		strb	r1, [r4, #2]
 333:Drivers/STM32F4xx_HAL_Driver/Src/stm32f4xx_hal_rtc_ex.c ****   sTimeStamp->TimeFormat = (uint8_t)((tmptime & (RTC_TR_PM)) >> 16U);  
 364              		.loc 1 333 0
 365 002e 00F04000 		and	r0, r0, #64
 366 0032 E070     		strb	r0, [r4, #3]
 334:Drivers/STM32F4xx_HAL_Driver/Src/stm32f4xx_hal_rtc_ex.c ****   sTimeStamp->SubSeconds = (uint32_t) hrtc->Instance->TSSSR;
 367              		.loc 1 334 0
 368 0034 3168     		ldr	r1, [r6]
 369              	.LVL34:
 370 0036 896B     		ldr	r1, [r1, #56]
 371 0038 6160     		str	r1, [r4, #4]
 335:Drivers/STM32F4xx_HAL_Driver/Src/stm32f4xx_hal_rtc_ex.c ****   
 336:Drivers/STM32F4xx_HAL_Driver/Src/stm32f4xx_hal_rtc_ex.c ****   /* Fill the Date structure fields with the read parameters */
 337:Drivers/STM32F4xx_HAL_Driver/Src/stm32f4xx_hal_rtc_ex.c ****   sTimeStampDate->Year = 0U;
 372              		.loc 1 337 0
 373 003a 0021     		movs	r1, #0
 374 003c E970     		strb	r1, [r5, #3]
 338:Drivers/STM32F4xx_HAL_Driver/Src/stm32f4xx_hal_rtc_ex.c ****   sTimeStampDate->Month = (uint8_t)((tmpdate & (RTC_DR_MT | RTC_DR_MU)) >> 8U);
 375              		.loc 1 338 0
 376 003e C2F30421 		ubfx	r1, r2, #8, #5
 377 0042 6970     		strb	r1, [r5, #1]
 339:Drivers/STM32F4xx_HAL_Driver/Src/stm32f4xx_hal_rtc_ex.c ****   sTimeStampDate->Date = (uint8_t)(tmpdate & (RTC_DR_DT | RTC_DR_DU));
 378              		.loc 1 339 0
 379 0044 AA70     		strb	r2, [r5, #2]
 340:Drivers/STM32F4xx_HAL_Driver/Src/stm32f4xx_hal_rtc_ex.c ****   sTimeStampDate->WeekDay = (uint8_t)((tmpdate & (RTC_DR_WDU)) >> 13U);
 380              		.loc 1 340 0
 381 0046 C2F34232 		ubfx	r2, r2, #13, #3
 382              	.LVL35:
 383 004a 2A70     		strb	r2, [r5]
 341:Drivers/STM32F4xx_HAL_Driver/Src/stm32f4xx_hal_rtc_ex.c **** 
 342:Drivers/STM32F4xx_HAL_Driver/Src/stm32f4xx_hal_rtc_ex.c ****   /* Check the input parameters format */
 343:Drivers/STM32F4xx_HAL_Driver/Src/stm32f4xx_hal_rtc_ex.c ****   if(Format == RTC_FORMAT_BIN)
 384              		.loc 1 343 0
 385 004c 3BB1     		cbz	r3, .L17
 386              	.LVL36:
 387              	.L15:
 344:Drivers/STM32F4xx_HAL_Driver/Src/stm32f4xx_hal_rtc_ex.c ****   {
 345:Drivers/STM32F4xx_HAL_Driver/Src/stm32f4xx_hal_rtc_ex.c ****     /* Convert the TimeStamp structure parameters to Binary format */
 346:Drivers/STM32F4xx_HAL_Driver/Src/stm32f4xx_hal_rtc_ex.c ****     sTimeStamp->Hours = (uint8_t)RTC_Bcd2ToByte(sTimeStamp->Hours);
 347:Drivers/STM32F4xx_HAL_Driver/Src/stm32f4xx_hal_rtc_ex.c ****     sTimeStamp->Minutes = (uint8_t)RTC_Bcd2ToByte(sTimeStamp->Minutes);
 348:Drivers/STM32F4xx_HAL_Driver/Src/stm32f4xx_hal_rtc_ex.c ****     sTimeStamp->Seconds = (uint8_t)RTC_Bcd2ToByte(sTimeStamp->Seconds);
 349:Drivers/STM32F4xx_HAL_Driver/Src/stm32f4xx_hal_rtc_ex.c ****     
 350:Drivers/STM32F4xx_HAL_Driver/Src/stm32f4xx_hal_rtc_ex.c ****     /* Convert the DateTimeStamp structure parameters to Binary format */
 351:Drivers/STM32F4xx_HAL_Driver/Src/stm32f4xx_hal_rtc_ex.c ****     sTimeStampDate->Month = (uint8_t)RTC_Bcd2ToByte(sTimeStampDate->Month);
 352:Drivers/STM32F4xx_HAL_Driver/Src/stm32f4xx_hal_rtc_ex.c ****     sTimeStampDate->Date = (uint8_t)RTC_Bcd2ToByte(sTimeStampDate->Date);
 353:Drivers/STM32F4xx_HAL_Driver/Src/stm32f4xx_hal_rtc_ex.c ****     sTimeStampDate->WeekDay = (uint8_t)RTC_Bcd2ToByte(sTimeStampDate->WeekDay);
 354:Drivers/STM32F4xx_HAL_Driver/Src/stm32f4xx_hal_rtc_ex.c ****   }
 355:Drivers/STM32F4xx_HAL_Driver/Src/stm32f4xx_hal_rtc_ex.c ****   
 356:Drivers/STM32F4xx_HAL_Driver/Src/stm32f4xx_hal_rtc_ex.c ****   /* Clear the TIMESTAMP Flag */
 357:Drivers/STM32F4xx_HAL_Driver/Src/stm32f4xx_hal_rtc_ex.c ****   __HAL_RTC_TIMESTAMP_CLEAR_FLAG(hrtc, RTC_FLAG_TSF);
 388              		.loc 1 357 0
ARM GAS  C:\Users\svcgu\AppData\Local\Temp\ccZ0uYCg.s 			page 14


 389 004e 3268     		ldr	r2, [r6]
 390 0050 D368     		ldr	r3, [r2, #12]
 391 0052 DBB2     		uxtb	r3, r3
 392 0054 63F40863 		orn	r3, r3, #2176
 393 0058 D360     		str	r3, [r2, #12]
 358:Drivers/STM32F4xx_HAL_Driver/Src/stm32f4xx_hal_rtc_ex.c ****     
 359:Drivers/STM32F4xx_HAL_Driver/Src/stm32f4xx_hal_rtc_ex.c ****   return HAL_OK;
 360:Drivers/STM32F4xx_HAL_Driver/Src/stm32f4xx_hal_rtc_ex.c **** }
 394              		.loc 1 360 0
 395 005a 0020     		movs	r0, #0
 396 005c F8BD     		pop	{r3, r4, r5, r6, r7, pc}
 397              	.LVL37:
 398              	.L17:
 346:Drivers/STM32F4xx_HAL_Driver/Src/stm32f4xx_hal_rtc_ex.c ****     sTimeStamp->Minutes = (uint8_t)RTC_Bcd2ToByte(sTimeStamp->Minutes);
 399              		.loc 1 346 0
 400 005e 2078     		ldrb	r0, [r4]	@ zero_extendqisi2
 401 0060 FFF7FEFF 		bl	RTC_Bcd2ToByte
 402              	.LVL38:
 403 0064 2070     		strb	r0, [r4]
 347:Drivers/STM32F4xx_HAL_Driver/Src/stm32f4xx_hal_rtc_ex.c ****     sTimeStamp->Seconds = (uint8_t)RTC_Bcd2ToByte(sTimeStamp->Seconds);
 404              		.loc 1 347 0
 405 0066 6078     		ldrb	r0, [r4, #1]	@ zero_extendqisi2
 406 0068 FFF7FEFF 		bl	RTC_Bcd2ToByte
 407              	.LVL39:
 408 006c 6070     		strb	r0, [r4, #1]
 348:Drivers/STM32F4xx_HAL_Driver/Src/stm32f4xx_hal_rtc_ex.c ****     
 409              		.loc 1 348 0
 410 006e A078     		ldrb	r0, [r4, #2]	@ zero_extendqisi2
 411 0070 FFF7FEFF 		bl	RTC_Bcd2ToByte
 412              	.LVL40:
 413 0074 A070     		strb	r0, [r4, #2]
 351:Drivers/STM32F4xx_HAL_Driver/Src/stm32f4xx_hal_rtc_ex.c ****     sTimeStampDate->Date = (uint8_t)RTC_Bcd2ToByte(sTimeStampDate->Date);
 414              		.loc 1 351 0
 415 0076 6878     		ldrb	r0, [r5, #1]	@ zero_extendqisi2
 416 0078 FFF7FEFF 		bl	RTC_Bcd2ToByte
 417              	.LVL41:
 418 007c 6870     		strb	r0, [r5, #1]
 352:Drivers/STM32F4xx_HAL_Driver/Src/stm32f4xx_hal_rtc_ex.c ****     sTimeStampDate->WeekDay = (uint8_t)RTC_Bcd2ToByte(sTimeStampDate->WeekDay);
 419              		.loc 1 352 0
 420 007e A878     		ldrb	r0, [r5, #2]	@ zero_extendqisi2
 421 0080 FFF7FEFF 		bl	RTC_Bcd2ToByte
 422              	.LVL42:
 423 0084 A870     		strb	r0, [r5, #2]
 353:Drivers/STM32F4xx_HAL_Driver/Src/stm32f4xx_hal_rtc_ex.c ****   }
 424              		.loc 1 353 0
 425 0086 2878     		ldrb	r0, [r5]	@ zero_extendqisi2
 426 0088 FFF7FEFF 		bl	RTC_Bcd2ToByte
 427              	.LVL43:
 428 008c 2870     		strb	r0, [r5]
 429 008e DEE7     		b	.L15
 430              		.cfi_endproc
 431              	.LFE127:
 433              		.section	.text.HAL_RTCEx_SetTamper,"ax",%progbits
 434              		.align	1
 435              		.global	HAL_RTCEx_SetTamper
 436              		.syntax unified
 437              		.thumb
ARM GAS  C:\Users\svcgu\AppData\Local\Temp\ccZ0uYCg.s 			page 15


 438              		.thumb_func
 439              		.fpu fpv4-sp-d16
 441              	HAL_RTCEx_SetTamper:
 442              	.LFB128:
 361:Drivers/STM32F4xx_HAL_Driver/Src/stm32f4xx_hal_rtc_ex.c **** 
 362:Drivers/STM32F4xx_HAL_Driver/Src/stm32f4xx_hal_rtc_ex.c **** /**
 363:Drivers/STM32F4xx_HAL_Driver/Src/stm32f4xx_hal_rtc_ex.c ****   * @brief  Sets Tamper
 364:Drivers/STM32F4xx_HAL_Driver/Src/stm32f4xx_hal_rtc_ex.c ****   * @note   By calling this API we disable the tamper interrupt for all tampers. 
 365:Drivers/STM32F4xx_HAL_Driver/Src/stm32f4xx_hal_rtc_ex.c ****   * @param  hrtc pointer to a RTC_HandleTypeDef structure that contains
 366:Drivers/STM32F4xx_HAL_Driver/Src/stm32f4xx_hal_rtc_ex.c ****   *                the configuration information for RTC.
 367:Drivers/STM32F4xx_HAL_Driver/Src/stm32f4xx_hal_rtc_ex.c ****   * @param  sTamper Pointer to Tamper Structure.
 368:Drivers/STM32F4xx_HAL_Driver/Src/stm32f4xx_hal_rtc_ex.c ****   * @retval HAL status
 369:Drivers/STM32F4xx_HAL_Driver/Src/stm32f4xx_hal_rtc_ex.c ****   */
 370:Drivers/STM32F4xx_HAL_Driver/Src/stm32f4xx_hal_rtc_ex.c **** HAL_StatusTypeDef HAL_RTCEx_SetTamper(RTC_HandleTypeDef *hrtc, RTC_TamperTypeDef* sTamper)
 371:Drivers/STM32F4xx_HAL_Driver/Src/stm32f4xx_hal_rtc_ex.c **** {
 443              		.loc 1 371 0
 444              		.cfi_startproc
 445              		@ args = 0, pretend = 0, frame = 0
 446              		@ frame_needed = 0, uses_anonymous_args = 0
 447              		@ link register save eliminated.
 448              	.LVL44:
 372:Drivers/STM32F4xx_HAL_Driver/Src/stm32f4xx_hal_rtc_ex.c ****   uint32_t tmpreg = 0U;
 373:Drivers/STM32F4xx_HAL_Driver/Src/stm32f4xx_hal_rtc_ex.c ****   
 374:Drivers/STM32F4xx_HAL_Driver/Src/stm32f4xx_hal_rtc_ex.c ****   /* Check the parameters */
 375:Drivers/STM32F4xx_HAL_Driver/Src/stm32f4xx_hal_rtc_ex.c ****   assert_param(IS_RTC_TAMPER(sTamper->Tamper)); 
 376:Drivers/STM32F4xx_HAL_Driver/Src/stm32f4xx_hal_rtc_ex.c ****   assert_param(IS_RTC_TAMPER_PIN(sTamper->PinSelection));
 377:Drivers/STM32F4xx_HAL_Driver/Src/stm32f4xx_hal_rtc_ex.c ****   assert_param(IS_RTC_TAMPER_TRIGGER(sTamper->Trigger));
 378:Drivers/STM32F4xx_HAL_Driver/Src/stm32f4xx_hal_rtc_ex.c ****   assert_param(IS_RTC_TAMPER_FILTER(sTamper->Filter));
 379:Drivers/STM32F4xx_HAL_Driver/Src/stm32f4xx_hal_rtc_ex.c ****   assert_param(IS_RTC_TAMPER_SAMPLING_FREQ(sTamper->SamplingFrequency));         
 380:Drivers/STM32F4xx_HAL_Driver/Src/stm32f4xx_hal_rtc_ex.c ****   assert_param(IS_RTC_TAMPER_PRECHARGE_DURATION(sTamper->PrechargeDuration));
 381:Drivers/STM32F4xx_HAL_Driver/Src/stm32f4xx_hal_rtc_ex.c ****   assert_param(IS_RTC_TAMPER_PULLUP_STATE(sTamper->TamperPullUp));
 382:Drivers/STM32F4xx_HAL_Driver/Src/stm32f4xx_hal_rtc_ex.c ****   assert_param(IS_RTC_TAMPER_TIMESTAMPONTAMPER_DETECTION(sTamper->TimeStampOnTamperDetection));
 383:Drivers/STM32F4xx_HAL_Driver/Src/stm32f4xx_hal_rtc_ex.c ****  
 384:Drivers/STM32F4xx_HAL_Driver/Src/stm32f4xx_hal_rtc_ex.c ****   /* Process Locked */ 
 385:Drivers/STM32F4xx_HAL_Driver/Src/stm32f4xx_hal_rtc_ex.c ****   __HAL_LOCK(hrtc);
 449              		.loc 1 385 0
 450 0000 037F     		ldrb	r3, [r0, #28]	@ zero_extendqisi2
 451 0002 012B     		cmp	r3, #1
 452 0004 2FD0     		beq	.L21
 371:Drivers/STM32F4xx_HAL_Driver/Src/stm32f4xx_hal_rtc_ex.c ****   uint32_t tmpreg = 0U;
 453              		.loc 1 371 0 discriminator 2
 454 0006 10B4     		push	{r4}
 455              	.LCFI7:
 456              		.cfi_def_cfa_offset 4
 457              		.cfi_offset 4, -4
 458              		.loc 1 385 0 discriminator 2
 459 0008 0123     		movs	r3, #1
 460 000a 0377     		strb	r3, [r0, #28]
 386:Drivers/STM32F4xx_HAL_Driver/Src/stm32f4xx_hal_rtc_ex.c ****     
 387:Drivers/STM32F4xx_HAL_Driver/Src/stm32f4xx_hal_rtc_ex.c ****   hrtc->State = HAL_RTC_STATE_BUSY;
 461              		.loc 1 387 0 discriminator 2
 462 000c 0223     		movs	r3, #2
 463 000e 4377     		strb	r3, [r0, #29]
 388:Drivers/STM32F4xx_HAL_Driver/Src/stm32f4xx_hal_rtc_ex.c **** 
 389:Drivers/STM32F4xx_HAL_Driver/Src/stm32f4xx_hal_rtc_ex.c ****   if(sTamper->Trigger != RTC_TAMPERTRIGGER_RISINGEDGE)
 464              		.loc 1 389 0 discriminator 2
 465 0010 8B68     		ldr	r3, [r1, #8]
ARM GAS  C:\Users\svcgu\AppData\Local\Temp\ccZ0uYCg.s 			page 16


 466 0012 13B1     		cbz	r3, .L20
 390:Drivers/STM32F4xx_HAL_Driver/Src/stm32f4xx_hal_rtc_ex.c ****   { 
 391:Drivers/STM32F4xx_HAL_Driver/Src/stm32f4xx_hal_rtc_ex.c ****     sTamper->Trigger = (uint32_t)(sTamper->Tamper << 1U); 
 467              		.loc 1 391 0
 468 0014 0B68     		ldr	r3, [r1]
 469 0016 5B00     		lsls	r3, r3, #1
 470 0018 8B60     		str	r3, [r1, #8]
 471              	.L20:
 392:Drivers/STM32F4xx_HAL_Driver/Src/stm32f4xx_hal_rtc_ex.c ****   } 
 393:Drivers/STM32F4xx_HAL_Driver/Src/stm32f4xx_hal_rtc_ex.c ****         
 394:Drivers/STM32F4xx_HAL_Driver/Src/stm32f4xx_hal_rtc_ex.c ****   tmpreg = ((uint32_t)sTamper->Tamper | (uint32_t)sTamper->PinSelection | (uint32_t)sTamper->Trigge
 472              		.loc 1 394 0
 473 001a 0A68     		ldr	r2, [r1]
 474 001c 4B68     		ldr	r3, [r1, #4]
 475 001e 1343     		orrs	r3, r3, r2
 476 0020 8C68     		ldr	r4, [r1, #8]
 477 0022 2343     		orrs	r3, r3, r4
 395:Drivers/STM32F4xx_HAL_Driver/Src/stm32f4xx_hal_rtc_ex.c ****             (uint32_t)sTamper->Filter | (uint32_t)sTamper->SamplingFrequency | (uint32_t)sTamper->P
 478              		.loc 1 395 0
 479 0024 CC68     		ldr	r4, [r1, #12]
 394:Drivers/STM32F4xx_HAL_Driver/Src/stm32f4xx_hal_rtc_ex.c ****             (uint32_t)sTamper->Filter | (uint32_t)sTamper->SamplingFrequency | (uint32_t)sTamper->P
 480              		.loc 1 394 0
 481 0026 2343     		orrs	r3, r3, r4
 482              		.loc 1 395 0
 483 0028 0C69     		ldr	r4, [r1, #16]
 484 002a 2343     		orrs	r3, r3, r4
 485 002c 4C69     		ldr	r4, [r1, #20]
 486 002e 2343     		orrs	r3, r3, r4
 396:Drivers/STM32F4xx_HAL_Driver/Src/stm32f4xx_hal_rtc_ex.c ****             (uint32_t)sTamper->TamperPullUp | sTamper->TimeStampOnTamperDetection);
 487              		.loc 1 396 0
 488 0030 8C69     		ldr	r4, [r1, #24]
 395:Drivers/STM32F4xx_HAL_Driver/Src/stm32f4xx_hal_rtc_ex.c ****             (uint32_t)sTamper->Filter | (uint32_t)sTamper->SamplingFrequency | (uint32_t)sTamper->P
 489              		.loc 1 395 0
 490 0032 2343     		orrs	r3, r3, r4
 491              		.loc 1 396 0
 492 0034 C969     		ldr	r1, [r1, #28]
 493              	.LVL45:
 394:Drivers/STM32F4xx_HAL_Driver/Src/stm32f4xx_hal_rtc_ex.c ****             (uint32_t)sTamper->Filter | (uint32_t)sTamper->SamplingFrequency | (uint32_t)sTamper->P
 494              		.loc 1 394 0
 495 0036 0B43     		orrs	r3, r3, r1
 496              	.LVL46:
 397:Drivers/STM32F4xx_HAL_Driver/Src/stm32f4xx_hal_rtc_ex.c ****   
 398:Drivers/STM32F4xx_HAL_Driver/Src/stm32f4xx_hal_rtc_ex.c ****   hrtc->Instance->TAFCR &= (uint32_t)~((uint32_t)sTamper->Tamper | (uint32_t)(sTamper->Tamper << 1U
 497              		.loc 1 398 0
 498 0038 0468     		ldr	r4, [r0]
 499 003a 216C     		ldr	r1, [r4, #64]
 500 003c 42EA4202 		orr	r2, r2, r2, lsl #1
 399:Drivers/STM32F4xx_HAL_Driver/Src/stm32f4xx_hal_rtc_ex.c ****                                        (uint32_t)RTC_TAFCR_TAMPFREQ | (uint32_t)RTC_TAFCR_TAMPFLT |
 400:Drivers/STM32F4xx_HAL_Driver/Src/stm32f4xx_hal_rtc_ex.c ****                                        (uint32_t)RTC_TAFCR_TAMPPUDIS | (uint32_t)RTC_TAFCR_TAMPINSE
 501              		.loc 1 400 0
 502 0040 42F4FF32 		orr	r2, r2, #130560
 503 0044 42F4C272 		orr	r2, r2, #388
 398:Drivers/STM32F4xx_HAL_Driver/Src/stm32f4xx_hal_rtc_ex.c ****                                        (uint32_t)RTC_TAFCR_TAMPFREQ | (uint32_t)RTC_TAFCR_TAMPFLT |
 504              		.loc 1 398 0
 505 0048 21EA0202 		bic	r2, r1, r2
 506 004c 2264     		str	r2, [r4, #64]
 401:Drivers/STM32F4xx_HAL_Driver/Src/stm32f4xx_hal_rtc_ex.c **** 
ARM GAS  C:\Users\svcgu\AppData\Local\Temp\ccZ0uYCg.s 			page 17


 402:Drivers/STM32F4xx_HAL_Driver/Src/stm32f4xx_hal_rtc_ex.c ****   hrtc->Instance->TAFCR |= tmpreg;
 507              		.loc 1 402 0
 508 004e 0268     		ldr	r2, [r0]
 509 0050 116C     		ldr	r1, [r2, #64]
 510 0052 0B43     		orrs	r3, r3, r1
 511              	.LVL47:
 512 0054 1364     		str	r3, [r2, #64]
 403:Drivers/STM32F4xx_HAL_Driver/Src/stm32f4xx_hal_rtc_ex.c ****   
 404:Drivers/STM32F4xx_HAL_Driver/Src/stm32f4xx_hal_rtc_ex.c ****   hrtc->State = HAL_RTC_STATE_READY; 
 513              		.loc 1 404 0
 514 0056 0123     		movs	r3, #1
 515 0058 4377     		strb	r3, [r0, #29]
 405:Drivers/STM32F4xx_HAL_Driver/Src/stm32f4xx_hal_rtc_ex.c **** 
 406:Drivers/STM32F4xx_HAL_Driver/Src/stm32f4xx_hal_rtc_ex.c ****   /* Process Unlocked */ 
 407:Drivers/STM32F4xx_HAL_Driver/Src/stm32f4xx_hal_rtc_ex.c ****   __HAL_UNLOCK(hrtc);
 516              		.loc 1 407 0
 517 005a 0023     		movs	r3, #0
 518 005c 0377     		strb	r3, [r0, #28]
 408:Drivers/STM32F4xx_HAL_Driver/Src/stm32f4xx_hal_rtc_ex.c ****     
 409:Drivers/STM32F4xx_HAL_Driver/Src/stm32f4xx_hal_rtc_ex.c ****   return HAL_OK;
 519              		.loc 1 409 0
 520 005e 1846     		mov	r0, r3
 521              	.LVL48:
 410:Drivers/STM32F4xx_HAL_Driver/Src/stm32f4xx_hal_rtc_ex.c **** }
 522              		.loc 1 410 0
 523 0060 5DF8044B 		ldr	r4, [sp], #4
 524              	.LCFI8:
 525              		.cfi_restore 4
 526              		.cfi_def_cfa_offset 0
 527 0064 7047     		bx	lr
 528              	.LVL49:
 529              	.L21:
 385:Drivers/STM32F4xx_HAL_Driver/Src/stm32f4xx_hal_rtc_ex.c ****     
 530              		.loc 1 385 0
 531 0066 0220     		movs	r0, #2
 532              	.LVL50:
 533 0068 7047     		bx	lr
 534              		.cfi_endproc
 535              	.LFE128:
 537              		.section	.text.HAL_RTCEx_SetTamper_IT,"ax",%progbits
 538              		.align	1
 539              		.global	HAL_RTCEx_SetTamper_IT
 540              		.syntax unified
 541              		.thumb
 542              		.thumb_func
 543              		.fpu fpv4-sp-d16
 545              	HAL_RTCEx_SetTamper_IT:
 546              	.LFB129:
 411:Drivers/STM32F4xx_HAL_Driver/Src/stm32f4xx_hal_rtc_ex.c **** 
 412:Drivers/STM32F4xx_HAL_Driver/Src/stm32f4xx_hal_rtc_ex.c **** /**
 413:Drivers/STM32F4xx_HAL_Driver/Src/stm32f4xx_hal_rtc_ex.c ****   * @brief  Sets Tamper with interrupt.
 414:Drivers/STM32F4xx_HAL_Driver/Src/stm32f4xx_hal_rtc_ex.c ****   * @note   By calling this API we force the tamper interrupt for all tampers.
 415:Drivers/STM32F4xx_HAL_Driver/Src/stm32f4xx_hal_rtc_ex.c ****   * @param  hrtc pointer to a RTC_HandleTypeDef structure that contains
 416:Drivers/STM32F4xx_HAL_Driver/Src/stm32f4xx_hal_rtc_ex.c ****   *                the configuration information for RTC.
 417:Drivers/STM32F4xx_HAL_Driver/Src/stm32f4xx_hal_rtc_ex.c ****   * @param  sTamper Pointer to RTC Tamper.
 418:Drivers/STM32F4xx_HAL_Driver/Src/stm32f4xx_hal_rtc_ex.c ****   * @retval HAL status
 419:Drivers/STM32F4xx_HAL_Driver/Src/stm32f4xx_hal_rtc_ex.c ****   */
ARM GAS  C:\Users\svcgu\AppData\Local\Temp\ccZ0uYCg.s 			page 18


 420:Drivers/STM32F4xx_HAL_Driver/Src/stm32f4xx_hal_rtc_ex.c **** HAL_StatusTypeDef HAL_RTCEx_SetTamper_IT(RTC_HandleTypeDef *hrtc, RTC_TamperTypeDef* sTamper)
 421:Drivers/STM32F4xx_HAL_Driver/Src/stm32f4xx_hal_rtc_ex.c **** {
 547              		.loc 1 421 0
 548              		.cfi_startproc
 549              		@ args = 0, pretend = 0, frame = 0
 550              		@ frame_needed = 0, uses_anonymous_args = 0
 551              		@ link register save eliminated.
 552              	.LVL51:
 422:Drivers/STM32F4xx_HAL_Driver/Src/stm32f4xx_hal_rtc_ex.c ****   uint32_t tmpreg = 0U;
 423:Drivers/STM32F4xx_HAL_Driver/Src/stm32f4xx_hal_rtc_ex.c ****   
 424:Drivers/STM32F4xx_HAL_Driver/Src/stm32f4xx_hal_rtc_ex.c ****   /* Check the parameters */
 425:Drivers/STM32F4xx_HAL_Driver/Src/stm32f4xx_hal_rtc_ex.c ****   assert_param(IS_RTC_TAMPER(sTamper->Tamper)); 
 426:Drivers/STM32F4xx_HAL_Driver/Src/stm32f4xx_hal_rtc_ex.c ****   assert_param(IS_RTC_TAMPER_PIN(sTamper->PinSelection));
 427:Drivers/STM32F4xx_HAL_Driver/Src/stm32f4xx_hal_rtc_ex.c ****   assert_param(IS_RTC_TAMPER_TRIGGER(sTamper->Trigger));
 428:Drivers/STM32F4xx_HAL_Driver/Src/stm32f4xx_hal_rtc_ex.c ****   assert_param(IS_RTC_TAMPER_FILTER(sTamper->Filter));
 429:Drivers/STM32F4xx_HAL_Driver/Src/stm32f4xx_hal_rtc_ex.c ****   assert_param(IS_RTC_TAMPER_SAMPLING_FREQ(sTamper->SamplingFrequency));         
 430:Drivers/STM32F4xx_HAL_Driver/Src/stm32f4xx_hal_rtc_ex.c ****   assert_param(IS_RTC_TAMPER_PRECHARGE_DURATION(sTamper->PrechargeDuration));
 431:Drivers/STM32F4xx_HAL_Driver/Src/stm32f4xx_hal_rtc_ex.c ****   assert_param(IS_RTC_TAMPER_PULLUP_STATE(sTamper->TamperPullUp));
 432:Drivers/STM32F4xx_HAL_Driver/Src/stm32f4xx_hal_rtc_ex.c ****   assert_param(IS_RTC_TAMPER_TIMESTAMPONTAMPER_DETECTION(sTamper->TimeStampOnTamperDetection));
 433:Drivers/STM32F4xx_HAL_Driver/Src/stm32f4xx_hal_rtc_ex.c ****  
 434:Drivers/STM32F4xx_HAL_Driver/Src/stm32f4xx_hal_rtc_ex.c ****   /* Process Locked */ 
 435:Drivers/STM32F4xx_HAL_Driver/Src/stm32f4xx_hal_rtc_ex.c ****   __HAL_LOCK(hrtc);
 553              		.loc 1 435 0
 554 0000 037F     		ldrb	r3, [r0, #28]	@ zero_extendqisi2
 555 0002 012B     		cmp	r3, #1
 556 0004 4CD0     		beq	.L31
 421:Drivers/STM32F4xx_HAL_Driver/Src/stm32f4xx_hal_rtc_ex.c ****   uint32_t tmpreg = 0U;
 557              		.loc 1 421 0 discriminator 2
 558 0006 30B4     		push	{r4, r5}
 559              	.LCFI9:
 560              		.cfi_def_cfa_offset 8
 561              		.cfi_offset 4, -8
 562              		.cfi_offset 5, -4
 563              		.loc 1 435 0 discriminator 2
 564 0008 0123     		movs	r3, #1
 565 000a 0377     		strb	r3, [r0, #28]
 436:Drivers/STM32F4xx_HAL_Driver/Src/stm32f4xx_hal_rtc_ex.c ****       
 437:Drivers/STM32F4xx_HAL_Driver/Src/stm32f4xx_hal_rtc_ex.c ****   hrtc->State = HAL_RTC_STATE_BUSY;
 566              		.loc 1 437 0 discriminator 2
 567 000c 0223     		movs	r3, #2
 568 000e 4377     		strb	r3, [r0, #29]
 438:Drivers/STM32F4xx_HAL_Driver/Src/stm32f4xx_hal_rtc_ex.c ****   
 439:Drivers/STM32F4xx_HAL_Driver/Src/stm32f4xx_hal_rtc_ex.c ****   /* Configure the tamper trigger */
 440:Drivers/STM32F4xx_HAL_Driver/Src/stm32f4xx_hal_rtc_ex.c ****   if(sTamper->Trigger != RTC_TAMPERTRIGGER_RISINGEDGE)
 569              		.loc 1 440 0 discriminator 2
 570 0010 8B68     		ldr	r3, [r1, #8]
 571 0012 13B1     		cbz	r3, .L28
 441:Drivers/STM32F4xx_HAL_Driver/Src/stm32f4xx_hal_rtc_ex.c ****   { 
 442:Drivers/STM32F4xx_HAL_Driver/Src/stm32f4xx_hal_rtc_ex.c ****     sTamper->Trigger = (uint32_t)(sTamper->Tamper << 1U); 
 572              		.loc 1 442 0
 573 0014 0B68     		ldr	r3, [r1]
 574 0016 5B00     		lsls	r3, r3, #1
 575 0018 8B60     		str	r3, [r1, #8]
 576              	.L28:
 443:Drivers/STM32F4xx_HAL_Driver/Src/stm32f4xx_hal_rtc_ex.c ****   } 
 444:Drivers/STM32F4xx_HAL_Driver/Src/stm32f4xx_hal_rtc_ex.c ****        
 445:Drivers/STM32F4xx_HAL_Driver/Src/stm32f4xx_hal_rtc_ex.c ****   tmpreg = ((uint32_t)sTamper->Tamper | (uint32_t)sTamper->PinSelection | (uint32_t)sTamper->Trigge
ARM GAS  C:\Users\svcgu\AppData\Local\Temp\ccZ0uYCg.s 			page 19


 577              		.loc 1 445 0
 578 001a 0A68     		ldr	r2, [r1]
 579 001c 4B68     		ldr	r3, [r1, #4]
 580 001e 1343     		orrs	r3, r3, r2
 581 0020 8C68     		ldr	r4, [r1, #8]
 582 0022 2343     		orrs	r3, r3, r4
 446:Drivers/STM32F4xx_HAL_Driver/Src/stm32f4xx_hal_rtc_ex.c ****             (uint32_t)sTamper->Filter | (uint32_t)sTamper->SamplingFrequency | (uint32_t)sTamper->P
 583              		.loc 1 446 0
 584 0024 CC68     		ldr	r4, [r1, #12]
 445:Drivers/STM32F4xx_HAL_Driver/Src/stm32f4xx_hal_rtc_ex.c ****             (uint32_t)sTamper->Filter | (uint32_t)sTamper->SamplingFrequency | (uint32_t)sTamper->P
 585              		.loc 1 445 0
 586 0026 2343     		orrs	r3, r3, r4
 587              		.loc 1 446 0
 588 0028 0C69     		ldr	r4, [r1, #16]
 589 002a 2343     		orrs	r3, r3, r4
 590 002c 4C69     		ldr	r4, [r1, #20]
 591 002e 2343     		orrs	r3, r3, r4
 447:Drivers/STM32F4xx_HAL_Driver/Src/stm32f4xx_hal_rtc_ex.c ****             (uint32_t)sTamper->TamperPullUp | sTamper->TimeStampOnTamperDetection);
 592              		.loc 1 447 0
 593 0030 8C69     		ldr	r4, [r1, #24]
 446:Drivers/STM32F4xx_HAL_Driver/Src/stm32f4xx_hal_rtc_ex.c ****             (uint32_t)sTamper->Filter | (uint32_t)sTamper->SamplingFrequency | (uint32_t)sTamper->P
 594              		.loc 1 446 0
 595 0032 2343     		orrs	r3, r3, r4
 596              		.loc 1 447 0
 597 0034 CC69     		ldr	r4, [r1, #28]
 445:Drivers/STM32F4xx_HAL_Driver/Src/stm32f4xx_hal_rtc_ex.c ****             (uint32_t)sTamper->Filter | (uint32_t)sTamper->SamplingFrequency | (uint32_t)sTamper->P
 598              		.loc 1 445 0
 599 0036 2343     		orrs	r3, r3, r4
 600              	.LVL52:
 448:Drivers/STM32F4xx_HAL_Driver/Src/stm32f4xx_hal_rtc_ex.c ****   
 449:Drivers/STM32F4xx_HAL_Driver/Src/stm32f4xx_hal_rtc_ex.c ****   hrtc->Instance->TAFCR &= (uint32_t)~((uint32_t)sTamper->Tamper | (uint32_t)(sTamper->Tamper << 1U
 601              		.loc 1 449 0
 602 0038 0568     		ldr	r5, [r0]
 603 003a 2C6C     		ldr	r4, [r5, #64]
 604 003c 42EA4202 		orr	r2, r2, r2, lsl #1
 450:Drivers/STM32F4xx_HAL_Driver/Src/stm32f4xx_hal_rtc_ex.c ****                                        (uint32_t)RTC_TAFCR_TAMPFREQ | (uint32_t)RTC_TAFCR_TAMPFLT |
 451:Drivers/STM32F4xx_HAL_Driver/Src/stm32f4xx_hal_rtc_ex.c ****                                        (uint32_t)RTC_TAFCR_TAMPPUDIS | (uint32_t)RTC_TAFCR_TAMPINSE
 605              		.loc 1 451 0
 606 0040 42F4FF32 		orr	r2, r2, #130560
 607 0044 42F4C072 		orr	r2, r2, #384
 449:Drivers/STM32F4xx_HAL_Driver/Src/stm32f4xx_hal_rtc_ex.c ****                                        (uint32_t)RTC_TAFCR_TAMPFREQ | (uint32_t)RTC_TAFCR_TAMPFLT |
 608              		.loc 1 449 0
 609 0048 24EA0202 		bic	r2, r4, r2
 610 004c 2A64     		str	r2, [r5, #64]
 452:Drivers/STM32F4xx_HAL_Driver/Src/stm32f4xx_hal_rtc_ex.c ****     
 453:Drivers/STM32F4xx_HAL_Driver/Src/stm32f4xx_hal_rtc_ex.c ****   hrtc->Instance->TAFCR |= tmpreg;
 611              		.loc 1 453 0
 612 004e 0268     		ldr	r2, [r0]
 613 0050 146C     		ldr	r4, [r2, #64]
 614 0052 2343     		orrs	r3, r3, r4
 615              	.LVL53:
 616 0054 1364     		str	r3, [r2, #64]
 454:Drivers/STM32F4xx_HAL_Driver/Src/stm32f4xx_hal_rtc_ex.c ****   
 455:Drivers/STM32F4xx_HAL_Driver/Src/stm32f4xx_hal_rtc_ex.c ****   /* Configure the Tamper Interrupt in the RTC_TAFCR */
 456:Drivers/STM32F4xx_HAL_Driver/Src/stm32f4xx_hal_rtc_ex.c ****   hrtc->Instance->TAFCR |= (uint32_t)RTC_TAFCR_TAMPIE;
 617              		.loc 1 456 0
 618 0056 0268     		ldr	r2, [r0]
ARM GAS  C:\Users\svcgu\AppData\Local\Temp\ccZ0uYCg.s 			page 20


 619 0058 136C     		ldr	r3, [r2, #64]
 620 005a 43F00403 		orr	r3, r3, #4
 621 005e 1364     		str	r3, [r2, #64]
 457:Drivers/STM32F4xx_HAL_Driver/Src/stm32f4xx_hal_rtc_ex.c **** 
 458:Drivers/STM32F4xx_HAL_Driver/Src/stm32f4xx_hal_rtc_ex.c ****   if(sTamper->Tamper == RTC_TAMPER_1)
 622              		.loc 1 458 0
 623 0060 0B68     		ldr	r3, [r1]
 624 0062 012B     		cmp	r3, #1
 625 0064 15D0     		beq	.L36
 459:Drivers/STM32F4xx_HAL_Driver/Src/stm32f4xx_hal_rtc_ex.c ****   {
 460:Drivers/STM32F4xx_HAL_Driver/Src/stm32f4xx_hal_rtc_ex.c ****     /* Clear RTC Tamper 1 flag */
 461:Drivers/STM32F4xx_HAL_Driver/Src/stm32f4xx_hal_rtc_ex.c ****     __HAL_RTC_TAMPER_CLEAR_FLAG(hrtc, RTC_FLAG_TAMP1F);
 462:Drivers/STM32F4xx_HAL_Driver/Src/stm32f4xx_hal_rtc_ex.c ****   }
 463:Drivers/STM32F4xx_HAL_Driver/Src/stm32f4xx_hal_rtc_ex.c ****   else
 464:Drivers/STM32F4xx_HAL_Driver/Src/stm32f4xx_hal_rtc_ex.c ****   {
 465:Drivers/STM32F4xx_HAL_Driver/Src/stm32f4xx_hal_rtc_ex.c ****     /* Clear RTC Tamper 2 flag */
 466:Drivers/STM32F4xx_HAL_Driver/Src/stm32f4xx_hal_rtc_ex.c ****     __HAL_RTC_TAMPER_CLEAR_FLAG(hrtc, RTC_FLAG_TAMP2F);    
 626              		.loc 1 466 0
 627 0066 0268     		ldr	r2, [r0]
 628 0068 D368     		ldr	r3, [r2, #12]
 629 006a DBB2     		uxtb	r3, r3
 630 006c 63F48143 		orn	r3, r3, #16512
 631 0070 D360     		str	r3, [r2, #12]
 632              	.L30:
 467:Drivers/STM32F4xx_HAL_Driver/Src/stm32f4xx_hal_rtc_ex.c ****   }
 468:Drivers/STM32F4xx_HAL_Driver/Src/stm32f4xx_hal_rtc_ex.c **** 
 469:Drivers/STM32F4xx_HAL_Driver/Src/stm32f4xx_hal_rtc_ex.c ****   /* RTC Tamper Interrupt Configuration: EXTI configuration */
 470:Drivers/STM32F4xx_HAL_Driver/Src/stm32f4xx_hal_rtc_ex.c ****   __HAL_RTC_TAMPER_TIMESTAMP_EXTI_ENABLE_IT();
 633              		.loc 1 470 0
 634 0072 0C4B     		ldr	r3, .L37
 635 0074 1A68     		ldr	r2, [r3]
 636 0076 42F40012 		orr	r2, r2, #2097152
 637 007a 1A60     		str	r2, [r3]
 471:Drivers/STM32F4xx_HAL_Driver/Src/stm32f4xx_hal_rtc_ex.c ****   
 472:Drivers/STM32F4xx_HAL_Driver/Src/stm32f4xx_hal_rtc_ex.c ****   EXTI->RTSR |= RTC_EXTI_LINE_TAMPER_TIMESTAMP_EVENT;
 638              		.loc 1 472 0
 639 007c 9A68     		ldr	r2, [r3, #8]
 640 007e 42F40012 		orr	r2, r2, #2097152
 641 0082 9A60     		str	r2, [r3, #8]
 473:Drivers/STM32F4xx_HAL_Driver/Src/stm32f4xx_hal_rtc_ex.c ****   
 474:Drivers/STM32F4xx_HAL_Driver/Src/stm32f4xx_hal_rtc_ex.c ****   hrtc->State = HAL_RTC_STATE_READY;   
 642              		.loc 1 474 0
 643 0084 0123     		movs	r3, #1
 644 0086 4377     		strb	r3, [r0, #29]
 475:Drivers/STM32F4xx_HAL_Driver/Src/stm32f4xx_hal_rtc_ex.c ****   
 476:Drivers/STM32F4xx_HAL_Driver/Src/stm32f4xx_hal_rtc_ex.c ****   /* Process Unlocked */ 
 477:Drivers/STM32F4xx_HAL_Driver/Src/stm32f4xx_hal_rtc_ex.c ****   __HAL_UNLOCK(hrtc);
 645              		.loc 1 477 0
 646 0088 0023     		movs	r3, #0
 647 008a 0377     		strb	r3, [r0, #28]
 478:Drivers/STM32F4xx_HAL_Driver/Src/stm32f4xx_hal_rtc_ex.c ****   
 479:Drivers/STM32F4xx_HAL_Driver/Src/stm32f4xx_hal_rtc_ex.c ****   return HAL_OK;
 648              		.loc 1 479 0
 649 008c 1846     		mov	r0, r3
 650              	.LVL54:
 480:Drivers/STM32F4xx_HAL_Driver/Src/stm32f4xx_hal_rtc_ex.c **** }
 651              		.loc 1 480 0
ARM GAS  C:\Users\svcgu\AppData\Local\Temp\ccZ0uYCg.s 			page 21


 652 008e 30BC     		pop	{r4, r5}
 653              	.LCFI10:
 654              		.cfi_remember_state
 655              		.cfi_restore 5
 656              		.cfi_restore 4
 657              		.cfi_def_cfa_offset 0
 658 0090 7047     		bx	lr
 659              	.LVL55:
 660              	.L36:
 661              	.LCFI11:
 662              		.cfi_restore_state
 461:Drivers/STM32F4xx_HAL_Driver/Src/stm32f4xx_hal_rtc_ex.c ****   }
 663              		.loc 1 461 0
 664 0092 0268     		ldr	r2, [r0]
 665 0094 D368     		ldr	r3, [r2, #12]
 666 0096 DBB2     		uxtb	r3, r3
 667 0098 63F40253 		orn	r3, r3, #8320
 668 009c D360     		str	r3, [r2, #12]
 669 009e E8E7     		b	.L30
 670              	.LVL56:
 671              	.L31:
 672              	.LCFI12:
 673              		.cfi_def_cfa_offset 0
 674              		.cfi_restore 4
 675              		.cfi_restore 5
 435:Drivers/STM32F4xx_HAL_Driver/Src/stm32f4xx_hal_rtc_ex.c ****       
 676              		.loc 1 435 0
 677 00a0 0220     		movs	r0, #2
 678              	.LVL57:
 679 00a2 7047     		bx	lr
 680              	.L38:
 681              		.align	2
 682              	.L37:
 683 00a4 003C0140 		.word	1073822720
 684              		.cfi_endproc
 685              	.LFE129:
 687              		.section	.text.HAL_RTCEx_DeactivateTamper,"ax",%progbits
 688              		.align	1
 689              		.global	HAL_RTCEx_DeactivateTamper
 690              		.syntax unified
 691              		.thumb
 692              		.thumb_func
 693              		.fpu fpv4-sp-d16
 695              	HAL_RTCEx_DeactivateTamper:
 696              	.LFB130:
 481:Drivers/STM32F4xx_HAL_Driver/Src/stm32f4xx_hal_rtc_ex.c **** 
 482:Drivers/STM32F4xx_HAL_Driver/Src/stm32f4xx_hal_rtc_ex.c **** /**
 483:Drivers/STM32F4xx_HAL_Driver/Src/stm32f4xx_hal_rtc_ex.c ****   * @brief  Deactivates Tamper.
 484:Drivers/STM32F4xx_HAL_Driver/Src/stm32f4xx_hal_rtc_ex.c ****   * @param  hrtc pointer to a RTC_HandleTypeDef structure that contains
 485:Drivers/STM32F4xx_HAL_Driver/Src/stm32f4xx_hal_rtc_ex.c ****   *                the configuration information for RTC.
 486:Drivers/STM32F4xx_HAL_Driver/Src/stm32f4xx_hal_rtc_ex.c ****   * @param  Tamper Selected tamper pin.
 487:Drivers/STM32F4xx_HAL_Driver/Src/stm32f4xx_hal_rtc_ex.c ****   *          This parameter can be RTC_Tamper_1 and/or RTC_TAMPER_2.
 488:Drivers/STM32F4xx_HAL_Driver/Src/stm32f4xx_hal_rtc_ex.c ****   * @retval HAL status
 489:Drivers/STM32F4xx_HAL_Driver/Src/stm32f4xx_hal_rtc_ex.c ****   */
 490:Drivers/STM32F4xx_HAL_Driver/Src/stm32f4xx_hal_rtc_ex.c **** HAL_StatusTypeDef HAL_RTCEx_DeactivateTamper(RTC_HandleTypeDef *hrtc, uint32_t Tamper)
 491:Drivers/STM32F4xx_HAL_Driver/Src/stm32f4xx_hal_rtc_ex.c **** {
 697              		.loc 1 491 0
ARM GAS  C:\Users\svcgu\AppData\Local\Temp\ccZ0uYCg.s 			page 22


 698              		.cfi_startproc
 699              		@ args = 0, pretend = 0, frame = 0
 700              		@ frame_needed = 0, uses_anonymous_args = 0
 701              		@ link register save eliminated.
 702              	.LVL58:
 492:Drivers/STM32F4xx_HAL_Driver/Src/stm32f4xx_hal_rtc_ex.c ****   assert_param(IS_RTC_TAMPER(Tamper)); 
 493:Drivers/STM32F4xx_HAL_Driver/Src/stm32f4xx_hal_rtc_ex.c ****   
 494:Drivers/STM32F4xx_HAL_Driver/Src/stm32f4xx_hal_rtc_ex.c ****   /* Process Locked */ 
 495:Drivers/STM32F4xx_HAL_Driver/Src/stm32f4xx_hal_rtc_ex.c ****   __HAL_LOCK(hrtc);
 703              		.loc 1 495 0
 704 0000 037F     		ldrb	r3, [r0, #28]	@ zero_extendqisi2
 705 0002 012B     		cmp	r3, #1
 706 0004 10D0     		beq	.L41
 491:Drivers/STM32F4xx_HAL_Driver/Src/stm32f4xx_hal_rtc_ex.c ****   assert_param(IS_RTC_TAMPER(Tamper)); 
 707              		.loc 1 491 0 discriminator 2
 708 0006 10B4     		push	{r4}
 709              	.LCFI13:
 710              		.cfi_def_cfa_offset 4
 711              		.cfi_offset 4, -4
 712              		.loc 1 495 0 discriminator 2
 713 0008 0122     		movs	r2, #1
 714 000a 0277     		strb	r2, [r0, #28]
 496:Drivers/STM32F4xx_HAL_Driver/Src/stm32f4xx_hal_rtc_ex.c ****       
 497:Drivers/STM32F4xx_HAL_Driver/Src/stm32f4xx_hal_rtc_ex.c ****   hrtc->State = HAL_RTC_STATE_BUSY;
 715              		.loc 1 497 0 discriminator 2
 716 000c 0223     		movs	r3, #2
 717 000e 4377     		strb	r3, [r0, #29]
 498:Drivers/STM32F4xx_HAL_Driver/Src/stm32f4xx_hal_rtc_ex.c ****   
 499:Drivers/STM32F4xx_HAL_Driver/Src/stm32f4xx_hal_rtc_ex.c ****   /* Disable the selected Tamper pin */
 500:Drivers/STM32F4xx_HAL_Driver/Src/stm32f4xx_hal_rtc_ex.c ****   hrtc->Instance->TAFCR &= (uint32_t)~Tamper;  
 718              		.loc 1 500 0 discriminator 2
 719 0010 0468     		ldr	r4, [r0]
 720 0012 236C     		ldr	r3, [r4, #64]
 721 0014 23EA0101 		bic	r1, r3, r1
 722              	.LVL59:
 723 0018 2164     		str	r1, [r4, #64]
 501:Drivers/STM32F4xx_HAL_Driver/Src/stm32f4xx_hal_rtc_ex.c ****   
 502:Drivers/STM32F4xx_HAL_Driver/Src/stm32f4xx_hal_rtc_ex.c ****   hrtc->State = HAL_RTC_STATE_READY;   
 724              		.loc 1 502 0 discriminator 2
 725 001a 4277     		strb	r2, [r0, #29]
 503:Drivers/STM32F4xx_HAL_Driver/Src/stm32f4xx_hal_rtc_ex.c ****   
 504:Drivers/STM32F4xx_HAL_Driver/Src/stm32f4xx_hal_rtc_ex.c ****   /* Process Unlocked */  
 505:Drivers/STM32F4xx_HAL_Driver/Src/stm32f4xx_hal_rtc_ex.c ****   __HAL_UNLOCK(hrtc);
 726              		.loc 1 505 0 discriminator 2
 727 001c 0023     		movs	r3, #0
 728 001e 0377     		strb	r3, [r0, #28]
 506:Drivers/STM32F4xx_HAL_Driver/Src/stm32f4xx_hal_rtc_ex.c ****   
 507:Drivers/STM32F4xx_HAL_Driver/Src/stm32f4xx_hal_rtc_ex.c ****   return HAL_OK; 
 729              		.loc 1 507 0 discriminator 2
 730 0020 1846     		mov	r0, r3
 731              	.LVL60:
 508:Drivers/STM32F4xx_HAL_Driver/Src/stm32f4xx_hal_rtc_ex.c **** }
 732              		.loc 1 508 0 discriminator 2
 733 0022 5DF8044B 		ldr	r4, [sp], #4
 734              	.LCFI14:
 735              		.cfi_restore 4
 736              		.cfi_def_cfa_offset 0
ARM GAS  C:\Users\svcgu\AppData\Local\Temp\ccZ0uYCg.s 			page 23


 737 0026 7047     		bx	lr
 738              	.LVL61:
 739              	.L41:
 495:Drivers/STM32F4xx_HAL_Driver/Src/stm32f4xx_hal_rtc_ex.c ****       
 740              		.loc 1 495 0
 741 0028 0220     		movs	r0, #2
 742              	.LVL62:
 743 002a 7047     		bx	lr
 744              		.cfi_endproc
 745              	.LFE130:
 747              		.section	.text.HAL_RTCEx_TimeStampEventCallback,"ax",%progbits
 748              		.align	1
 749              		.weak	HAL_RTCEx_TimeStampEventCallback
 750              		.syntax unified
 751              		.thumb
 752              		.thumb_func
 753              		.fpu fpv4-sp-d16
 755              	HAL_RTCEx_TimeStampEventCallback:
 756              	.LFB132:
 509:Drivers/STM32F4xx_HAL_Driver/Src/stm32f4xx_hal_rtc_ex.c **** 
 510:Drivers/STM32F4xx_HAL_Driver/Src/stm32f4xx_hal_rtc_ex.c **** /**
 511:Drivers/STM32F4xx_HAL_Driver/Src/stm32f4xx_hal_rtc_ex.c ****   * @brief  This function handles TimeStamp interrupt request.
 512:Drivers/STM32F4xx_HAL_Driver/Src/stm32f4xx_hal_rtc_ex.c ****   * @param  hrtc pointer to a RTC_HandleTypeDef structure that contains
 513:Drivers/STM32F4xx_HAL_Driver/Src/stm32f4xx_hal_rtc_ex.c ****   *                the configuration information for RTC.
 514:Drivers/STM32F4xx_HAL_Driver/Src/stm32f4xx_hal_rtc_ex.c ****   * @retval None
 515:Drivers/STM32F4xx_HAL_Driver/Src/stm32f4xx_hal_rtc_ex.c ****   */
 516:Drivers/STM32F4xx_HAL_Driver/Src/stm32f4xx_hal_rtc_ex.c **** void HAL_RTCEx_TamperTimeStampIRQHandler(RTC_HandleTypeDef *hrtc)
 517:Drivers/STM32F4xx_HAL_Driver/Src/stm32f4xx_hal_rtc_ex.c **** {  
 518:Drivers/STM32F4xx_HAL_Driver/Src/stm32f4xx_hal_rtc_ex.c ****   if(__HAL_RTC_TIMESTAMP_GET_IT(hrtc, RTC_IT_TS))
 519:Drivers/STM32F4xx_HAL_Driver/Src/stm32f4xx_hal_rtc_ex.c ****   {
 520:Drivers/STM32F4xx_HAL_Driver/Src/stm32f4xx_hal_rtc_ex.c ****     /* Get the status of the Interrupt */
 521:Drivers/STM32F4xx_HAL_Driver/Src/stm32f4xx_hal_rtc_ex.c ****     if((uint32_t)(hrtc->Instance->CR & RTC_IT_TS) != (uint32_t)RESET)
 522:Drivers/STM32F4xx_HAL_Driver/Src/stm32f4xx_hal_rtc_ex.c ****     {
 523:Drivers/STM32F4xx_HAL_Driver/Src/stm32f4xx_hal_rtc_ex.c ****       /* TIMESTAMP callback */ 
 524:Drivers/STM32F4xx_HAL_Driver/Src/stm32f4xx_hal_rtc_ex.c ****       HAL_RTCEx_TimeStampEventCallback(hrtc);
 525:Drivers/STM32F4xx_HAL_Driver/Src/stm32f4xx_hal_rtc_ex.c ****   
 526:Drivers/STM32F4xx_HAL_Driver/Src/stm32f4xx_hal_rtc_ex.c ****       /* Clear the TIMESTAMP interrupt pending bit */
 527:Drivers/STM32F4xx_HAL_Driver/Src/stm32f4xx_hal_rtc_ex.c ****       __HAL_RTC_TIMESTAMP_CLEAR_FLAG(hrtc,RTC_FLAG_TSF);
 528:Drivers/STM32F4xx_HAL_Driver/Src/stm32f4xx_hal_rtc_ex.c ****     }
 529:Drivers/STM32F4xx_HAL_Driver/Src/stm32f4xx_hal_rtc_ex.c ****   }
 530:Drivers/STM32F4xx_HAL_Driver/Src/stm32f4xx_hal_rtc_ex.c ****   
 531:Drivers/STM32F4xx_HAL_Driver/Src/stm32f4xx_hal_rtc_ex.c ****   /* Get the status of the Interrupt */
 532:Drivers/STM32F4xx_HAL_Driver/Src/stm32f4xx_hal_rtc_ex.c ****   if(__HAL_RTC_TAMPER_GET_IT(hrtc,RTC_IT_TAMP1))
 533:Drivers/STM32F4xx_HAL_Driver/Src/stm32f4xx_hal_rtc_ex.c ****   {
 534:Drivers/STM32F4xx_HAL_Driver/Src/stm32f4xx_hal_rtc_ex.c ****     /* Get the TAMPER Interrupt enable bit and pending bit */
 535:Drivers/STM32F4xx_HAL_Driver/Src/stm32f4xx_hal_rtc_ex.c ****     if(((hrtc->Instance->TAFCR & (RTC_TAFCR_TAMPIE))) != (uint32_t)RESET) 
 536:Drivers/STM32F4xx_HAL_Driver/Src/stm32f4xx_hal_rtc_ex.c ****     {
 537:Drivers/STM32F4xx_HAL_Driver/Src/stm32f4xx_hal_rtc_ex.c ****       /* Tamper callback */ 
 538:Drivers/STM32F4xx_HAL_Driver/Src/stm32f4xx_hal_rtc_ex.c ****       HAL_RTCEx_Tamper1EventCallback(hrtc);
 539:Drivers/STM32F4xx_HAL_Driver/Src/stm32f4xx_hal_rtc_ex.c ****   
 540:Drivers/STM32F4xx_HAL_Driver/Src/stm32f4xx_hal_rtc_ex.c ****       /* Clear the Tamper interrupt pending bit */
 541:Drivers/STM32F4xx_HAL_Driver/Src/stm32f4xx_hal_rtc_ex.c ****       __HAL_RTC_TAMPER_CLEAR_FLAG(hrtc,RTC_FLAG_TAMP1F);
 542:Drivers/STM32F4xx_HAL_Driver/Src/stm32f4xx_hal_rtc_ex.c ****     }
 543:Drivers/STM32F4xx_HAL_Driver/Src/stm32f4xx_hal_rtc_ex.c ****   }
 544:Drivers/STM32F4xx_HAL_Driver/Src/stm32f4xx_hal_rtc_ex.c ****   
 545:Drivers/STM32F4xx_HAL_Driver/Src/stm32f4xx_hal_rtc_ex.c ****   /* Get the status of the Interrupt */
 546:Drivers/STM32F4xx_HAL_Driver/Src/stm32f4xx_hal_rtc_ex.c ****   if(__HAL_RTC_TAMPER_GET_IT(hrtc, RTC_IT_TAMP2))
ARM GAS  C:\Users\svcgu\AppData\Local\Temp\ccZ0uYCg.s 			page 24


 547:Drivers/STM32F4xx_HAL_Driver/Src/stm32f4xx_hal_rtc_ex.c ****   {
 548:Drivers/STM32F4xx_HAL_Driver/Src/stm32f4xx_hal_rtc_ex.c ****     /* Get the TAMPER Interrupt enable bit and pending bit */
 549:Drivers/STM32F4xx_HAL_Driver/Src/stm32f4xx_hal_rtc_ex.c ****     if(((hrtc->Instance->TAFCR & RTC_TAFCR_TAMPIE)) != (uint32_t)RESET) 
 550:Drivers/STM32F4xx_HAL_Driver/Src/stm32f4xx_hal_rtc_ex.c ****     {
 551:Drivers/STM32F4xx_HAL_Driver/Src/stm32f4xx_hal_rtc_ex.c ****       /* Tamper callback */ 
 552:Drivers/STM32F4xx_HAL_Driver/Src/stm32f4xx_hal_rtc_ex.c ****       HAL_RTCEx_Tamper2EventCallback(hrtc);
 553:Drivers/STM32F4xx_HAL_Driver/Src/stm32f4xx_hal_rtc_ex.c ****   
 554:Drivers/STM32F4xx_HAL_Driver/Src/stm32f4xx_hal_rtc_ex.c ****       /* Clear the Tamper interrupt pending bit */
 555:Drivers/STM32F4xx_HAL_Driver/Src/stm32f4xx_hal_rtc_ex.c ****       __HAL_RTC_TAMPER_CLEAR_FLAG(hrtc, RTC_FLAG_TAMP2F);
 556:Drivers/STM32F4xx_HAL_Driver/Src/stm32f4xx_hal_rtc_ex.c ****     }
 557:Drivers/STM32F4xx_HAL_Driver/Src/stm32f4xx_hal_rtc_ex.c ****   }
 558:Drivers/STM32F4xx_HAL_Driver/Src/stm32f4xx_hal_rtc_ex.c ****   /* Clear the EXTI's Flag for RTC TimeStamp and Tamper */
 559:Drivers/STM32F4xx_HAL_Driver/Src/stm32f4xx_hal_rtc_ex.c ****   __HAL_RTC_TAMPER_TIMESTAMP_EXTI_CLEAR_FLAG();
 560:Drivers/STM32F4xx_HAL_Driver/Src/stm32f4xx_hal_rtc_ex.c ****   
 561:Drivers/STM32F4xx_HAL_Driver/Src/stm32f4xx_hal_rtc_ex.c ****   /* Change RTC state */
 562:Drivers/STM32F4xx_HAL_Driver/Src/stm32f4xx_hal_rtc_ex.c ****   hrtc->State = HAL_RTC_STATE_READY; 
 563:Drivers/STM32F4xx_HAL_Driver/Src/stm32f4xx_hal_rtc_ex.c **** }
 564:Drivers/STM32F4xx_HAL_Driver/Src/stm32f4xx_hal_rtc_ex.c **** 
 565:Drivers/STM32F4xx_HAL_Driver/Src/stm32f4xx_hal_rtc_ex.c **** /**
 566:Drivers/STM32F4xx_HAL_Driver/Src/stm32f4xx_hal_rtc_ex.c ****   * @brief  TimeStamp callback. 
 567:Drivers/STM32F4xx_HAL_Driver/Src/stm32f4xx_hal_rtc_ex.c ****   * @param  hrtc pointer to a RTC_HandleTypeDef structure that contains
 568:Drivers/STM32F4xx_HAL_Driver/Src/stm32f4xx_hal_rtc_ex.c ****   *                the configuration information for RTC.
 569:Drivers/STM32F4xx_HAL_Driver/Src/stm32f4xx_hal_rtc_ex.c ****   * @retval None
 570:Drivers/STM32F4xx_HAL_Driver/Src/stm32f4xx_hal_rtc_ex.c ****   */
 571:Drivers/STM32F4xx_HAL_Driver/Src/stm32f4xx_hal_rtc_ex.c **** __weak void HAL_RTCEx_TimeStampEventCallback(RTC_HandleTypeDef *hrtc)
 572:Drivers/STM32F4xx_HAL_Driver/Src/stm32f4xx_hal_rtc_ex.c **** {
 757              		.loc 1 572 0
 758              		.cfi_startproc
 759              		@ args = 0, pretend = 0, frame = 0
 760              		@ frame_needed = 0, uses_anonymous_args = 0
 761              		@ link register save eliminated.
 762              	.LVL63:
 763 0000 7047     		bx	lr
 764              		.cfi_endproc
 765              	.LFE132:
 767              		.section	.text.HAL_RTCEx_Tamper1EventCallback,"ax",%progbits
 768              		.align	1
 769              		.weak	HAL_RTCEx_Tamper1EventCallback
 770              		.syntax unified
 771              		.thumb
 772              		.thumb_func
 773              		.fpu fpv4-sp-d16
 775              	HAL_RTCEx_Tamper1EventCallback:
 776              	.LFB133:
 573:Drivers/STM32F4xx_HAL_Driver/Src/stm32f4xx_hal_rtc_ex.c ****   /* Prevent unused argument(s) compilation warning */
 574:Drivers/STM32F4xx_HAL_Driver/Src/stm32f4xx_hal_rtc_ex.c ****   UNUSED(hrtc);
 575:Drivers/STM32F4xx_HAL_Driver/Src/stm32f4xx_hal_rtc_ex.c ****   /* NOTE : This function Should not be modified, when the callback is needed,
 576:Drivers/STM32F4xx_HAL_Driver/Src/stm32f4xx_hal_rtc_ex.c ****             the HAL_RTC_TimeStampEventCallback could be implemented in the user file
 577:Drivers/STM32F4xx_HAL_Driver/Src/stm32f4xx_hal_rtc_ex.c ****   */
 578:Drivers/STM32F4xx_HAL_Driver/Src/stm32f4xx_hal_rtc_ex.c **** }
 579:Drivers/STM32F4xx_HAL_Driver/Src/stm32f4xx_hal_rtc_ex.c **** 
 580:Drivers/STM32F4xx_HAL_Driver/Src/stm32f4xx_hal_rtc_ex.c **** /**
 581:Drivers/STM32F4xx_HAL_Driver/Src/stm32f4xx_hal_rtc_ex.c ****   * @brief  Tamper 1 callback. 
 582:Drivers/STM32F4xx_HAL_Driver/Src/stm32f4xx_hal_rtc_ex.c ****   * @param  hrtc pointer to a RTC_HandleTypeDef structure that contains
 583:Drivers/STM32F4xx_HAL_Driver/Src/stm32f4xx_hal_rtc_ex.c ****   *                the configuration information for RTC.
 584:Drivers/STM32F4xx_HAL_Driver/Src/stm32f4xx_hal_rtc_ex.c ****   * @retval None
 585:Drivers/STM32F4xx_HAL_Driver/Src/stm32f4xx_hal_rtc_ex.c ****   */
ARM GAS  C:\Users\svcgu\AppData\Local\Temp\ccZ0uYCg.s 			page 25


 586:Drivers/STM32F4xx_HAL_Driver/Src/stm32f4xx_hal_rtc_ex.c **** __weak void HAL_RTCEx_Tamper1EventCallback(RTC_HandleTypeDef *hrtc)
 587:Drivers/STM32F4xx_HAL_Driver/Src/stm32f4xx_hal_rtc_ex.c **** {
 777              		.loc 1 587 0
 778              		.cfi_startproc
 779              		@ args = 0, pretend = 0, frame = 0
 780              		@ frame_needed = 0, uses_anonymous_args = 0
 781              		@ link register save eliminated.
 782              	.LVL64:
 783 0000 7047     		bx	lr
 784              		.cfi_endproc
 785              	.LFE133:
 787              		.section	.text.HAL_RTCEx_Tamper2EventCallback,"ax",%progbits
 788              		.align	1
 789              		.weak	HAL_RTCEx_Tamper2EventCallback
 790              		.syntax unified
 791              		.thumb
 792              		.thumb_func
 793              		.fpu fpv4-sp-d16
 795              	HAL_RTCEx_Tamper2EventCallback:
 796              	.LFB134:
 588:Drivers/STM32F4xx_HAL_Driver/Src/stm32f4xx_hal_rtc_ex.c ****   /* Prevent unused argument(s) compilation warning */
 589:Drivers/STM32F4xx_HAL_Driver/Src/stm32f4xx_hal_rtc_ex.c ****   UNUSED(hrtc);
 590:Drivers/STM32F4xx_HAL_Driver/Src/stm32f4xx_hal_rtc_ex.c ****   /* NOTE : This function Should not be modified, when the callback is needed,
 591:Drivers/STM32F4xx_HAL_Driver/Src/stm32f4xx_hal_rtc_ex.c ****             the HAL_RTC_Tamper1EventCallback could be implemented in the user file
 592:Drivers/STM32F4xx_HAL_Driver/Src/stm32f4xx_hal_rtc_ex.c ****    */
 593:Drivers/STM32F4xx_HAL_Driver/Src/stm32f4xx_hal_rtc_ex.c **** }
 594:Drivers/STM32F4xx_HAL_Driver/Src/stm32f4xx_hal_rtc_ex.c **** 
 595:Drivers/STM32F4xx_HAL_Driver/Src/stm32f4xx_hal_rtc_ex.c **** /**
 596:Drivers/STM32F4xx_HAL_Driver/Src/stm32f4xx_hal_rtc_ex.c ****   * @brief  Tamper 2 callback. 
 597:Drivers/STM32F4xx_HAL_Driver/Src/stm32f4xx_hal_rtc_ex.c ****   * @param  hrtc pointer to a RTC_HandleTypeDef structure that contains
 598:Drivers/STM32F4xx_HAL_Driver/Src/stm32f4xx_hal_rtc_ex.c ****   *                the configuration information for RTC.
 599:Drivers/STM32F4xx_HAL_Driver/Src/stm32f4xx_hal_rtc_ex.c ****   * @retval None
 600:Drivers/STM32F4xx_HAL_Driver/Src/stm32f4xx_hal_rtc_ex.c ****   */
 601:Drivers/STM32F4xx_HAL_Driver/Src/stm32f4xx_hal_rtc_ex.c **** __weak void HAL_RTCEx_Tamper2EventCallback(RTC_HandleTypeDef *hrtc)
 602:Drivers/STM32F4xx_HAL_Driver/Src/stm32f4xx_hal_rtc_ex.c **** {
 797              		.loc 1 602 0
 798              		.cfi_startproc
 799              		@ args = 0, pretend = 0, frame = 0
 800              		@ frame_needed = 0, uses_anonymous_args = 0
 801              		@ link register save eliminated.
 802              	.LVL65:
 803 0000 7047     		bx	lr
 804              		.cfi_endproc
 805              	.LFE134:
 807              		.section	.text.HAL_RTCEx_TamperTimeStampIRQHandler,"ax",%progbits
 808              		.align	1
 809              		.global	HAL_RTCEx_TamperTimeStampIRQHandler
 810              		.syntax unified
 811              		.thumb
 812              		.thumb_func
 813              		.fpu fpv4-sp-d16
 815              	HAL_RTCEx_TamperTimeStampIRQHandler:
 816              	.LFB131:
 517:Drivers/STM32F4xx_HAL_Driver/Src/stm32f4xx_hal_rtc_ex.c ****   if(__HAL_RTC_TIMESTAMP_GET_IT(hrtc, RTC_IT_TS))
 817              		.loc 1 517 0
 818              		.cfi_startproc
 819              		@ args = 0, pretend = 0, frame = 0
ARM GAS  C:\Users\svcgu\AppData\Local\Temp\ccZ0uYCg.s 			page 26


 820              		@ frame_needed = 0, uses_anonymous_args = 0
 821              	.LVL66:
 517:Drivers/STM32F4xx_HAL_Driver/Src/stm32f4xx_hal_rtc_ex.c ****   if(__HAL_RTC_TIMESTAMP_GET_IT(hrtc, RTC_IT_TS))
 822              		.loc 1 517 0
 823 0000 10B5     		push	{r4, lr}
 824              	.LCFI15:
 825              		.cfi_def_cfa_offset 8
 826              		.cfi_offset 4, -8
 827              		.cfi_offset 14, -4
 828 0002 0446     		mov	r4, r0
 518:Drivers/STM32F4xx_HAL_Driver/Src/stm32f4xx_hal_rtc_ex.c ****   {
 829              		.loc 1 518 0
 830 0004 0368     		ldr	r3, [r0]
 831 0006 DA68     		ldr	r2, [r3, #12]
 832 0008 12F4006F 		tst	r2, #2048
 833 000c 03D0     		beq	.L50
 521:Drivers/STM32F4xx_HAL_Driver/Src/stm32f4xx_hal_rtc_ex.c ****     {
 834              		.loc 1 521 0
 835 000e 9B68     		ldr	r3, [r3, #8]
 836 0010 13F4004F 		tst	r3, #32768
 837 0014 18D1     		bne	.L54
 838              	.LVL67:
 839              	.L50:
 532:Drivers/STM32F4xx_HAL_Driver/Src/stm32f4xx_hal_rtc_ex.c ****   {
 840              		.loc 1 532 0
 841 0016 2368     		ldr	r3, [r4]
 842 0018 DA68     		ldr	r2, [r3, #12]
 843 001a 12F4005F 		tst	r2, #8192
 844 001e 03D0     		beq	.L51
 535:Drivers/STM32F4xx_HAL_Driver/Src/stm32f4xx_hal_rtc_ex.c ****     {
 845              		.loc 1 535 0
 846 0020 1B6C     		ldr	r3, [r3, #64]
 847 0022 13F0040F 		tst	r3, #4
 848 0026 18D1     		bne	.L55
 849              	.L51:
 546:Drivers/STM32F4xx_HAL_Driver/Src/stm32f4xx_hal_rtc_ex.c ****   {
 850              		.loc 1 546 0
 851 0028 2368     		ldr	r3, [r4]
 852 002a DA68     		ldr	r2, [r3, #12]
 853 002c 12F4804F 		tst	r2, #16384
 854 0030 03D0     		beq	.L52
 549:Drivers/STM32F4xx_HAL_Driver/Src/stm32f4xx_hal_rtc_ex.c ****     {
 855              		.loc 1 549 0
 856 0032 1B6C     		ldr	r3, [r3, #64]
 857 0034 13F0040F 		tst	r3, #4
 858 0038 19D1     		bne	.L56
 859              	.L52:
 559:Drivers/STM32F4xx_HAL_Driver/Src/stm32f4xx_hal_rtc_ex.c ****   
 860              		.loc 1 559 0
 861 003a 4FF40012 		mov	r2, #2097152
 862 003e 114B     		ldr	r3, .L57
 863 0040 5A61     		str	r2, [r3, #20]
 562:Drivers/STM32F4xx_HAL_Driver/Src/stm32f4xx_hal_rtc_ex.c **** }
 864              		.loc 1 562 0
 865 0042 0123     		movs	r3, #1
 866 0044 6377     		strb	r3, [r4, #29]
 867 0046 10BD     		pop	{r4, pc}
ARM GAS  C:\Users\svcgu\AppData\Local\Temp\ccZ0uYCg.s 			page 27


 868              	.LVL68:
 869              	.L54:
 524:Drivers/STM32F4xx_HAL_Driver/Src/stm32f4xx_hal_rtc_ex.c ****   
 870              		.loc 1 524 0
 871 0048 FFF7FEFF 		bl	HAL_RTCEx_TimeStampEventCallback
 872              	.LVL69:
 527:Drivers/STM32F4xx_HAL_Driver/Src/stm32f4xx_hal_rtc_ex.c ****     }
 873              		.loc 1 527 0
 874 004c 2268     		ldr	r2, [r4]
 875 004e D368     		ldr	r3, [r2, #12]
 876 0050 DBB2     		uxtb	r3, r3
 877 0052 63F40863 		orn	r3, r3, #2176
 878 0056 D360     		str	r3, [r2, #12]
 879 0058 DDE7     		b	.L50
 880              	.L55:
 538:Drivers/STM32F4xx_HAL_Driver/Src/stm32f4xx_hal_rtc_ex.c ****   
 881              		.loc 1 538 0
 882 005a 2046     		mov	r0, r4
 883 005c FFF7FEFF 		bl	HAL_RTCEx_Tamper1EventCallback
 884              	.LVL70:
 541:Drivers/STM32F4xx_HAL_Driver/Src/stm32f4xx_hal_rtc_ex.c ****     }
 885              		.loc 1 541 0
 886 0060 2268     		ldr	r2, [r4]
 887 0062 D368     		ldr	r3, [r2, #12]
 888 0064 DBB2     		uxtb	r3, r3
 889 0066 63F40253 		orn	r3, r3, #8320
 890 006a D360     		str	r3, [r2, #12]
 891 006c DCE7     		b	.L51
 892              	.L56:
 552:Drivers/STM32F4xx_HAL_Driver/Src/stm32f4xx_hal_rtc_ex.c ****   
 893              		.loc 1 552 0
 894 006e 2046     		mov	r0, r4
 895 0070 FFF7FEFF 		bl	HAL_RTCEx_Tamper2EventCallback
 896              	.LVL71:
 555:Drivers/STM32F4xx_HAL_Driver/Src/stm32f4xx_hal_rtc_ex.c ****     }
 897              		.loc 1 555 0
 898 0074 2268     		ldr	r2, [r4]
 899 0076 D368     		ldr	r3, [r2, #12]
 900 0078 DBB2     		uxtb	r3, r3
 901 007a 63F48143 		orn	r3, r3, #16512
 902 007e D360     		str	r3, [r2, #12]
 903 0080 DBE7     		b	.L52
 904              	.L58:
 905 0082 00BF     		.align	2
 906              	.L57:
 907 0084 003C0140 		.word	1073822720
 908              		.cfi_endproc
 909              	.LFE131:
 911              		.section	.text.HAL_RTCEx_PollForTimeStampEvent,"ax",%progbits
 912              		.align	1
 913              		.global	HAL_RTCEx_PollForTimeStampEvent
 914              		.syntax unified
 915              		.thumb
 916              		.thumb_func
 917              		.fpu fpv4-sp-d16
 919              	HAL_RTCEx_PollForTimeStampEvent:
 920              	.LFB135:
ARM GAS  C:\Users\svcgu\AppData\Local\Temp\ccZ0uYCg.s 			page 28


 603:Drivers/STM32F4xx_HAL_Driver/Src/stm32f4xx_hal_rtc_ex.c ****   /* Prevent unused argument(s) compilation warning */
 604:Drivers/STM32F4xx_HAL_Driver/Src/stm32f4xx_hal_rtc_ex.c ****   UNUSED(hrtc);
 605:Drivers/STM32F4xx_HAL_Driver/Src/stm32f4xx_hal_rtc_ex.c ****   /* NOTE : This function Should not be modified, when the callback is needed,
 606:Drivers/STM32F4xx_HAL_Driver/Src/stm32f4xx_hal_rtc_ex.c ****             the HAL_RTC_Tamper2EventCallback could be implemented in the user file
 607:Drivers/STM32F4xx_HAL_Driver/Src/stm32f4xx_hal_rtc_ex.c ****    */
 608:Drivers/STM32F4xx_HAL_Driver/Src/stm32f4xx_hal_rtc_ex.c **** }
 609:Drivers/STM32F4xx_HAL_Driver/Src/stm32f4xx_hal_rtc_ex.c **** 
 610:Drivers/STM32F4xx_HAL_Driver/Src/stm32f4xx_hal_rtc_ex.c **** /**
 611:Drivers/STM32F4xx_HAL_Driver/Src/stm32f4xx_hal_rtc_ex.c ****   * @brief  This function handles TimeStamp polling request.
 612:Drivers/STM32F4xx_HAL_Driver/Src/stm32f4xx_hal_rtc_ex.c ****   * @param  hrtc pointer to a RTC_HandleTypeDef structure that contains
 613:Drivers/STM32F4xx_HAL_Driver/Src/stm32f4xx_hal_rtc_ex.c ****   *                the configuration information for RTC.
 614:Drivers/STM32F4xx_HAL_Driver/Src/stm32f4xx_hal_rtc_ex.c ****   * @param  Timeout Timeout duration
 615:Drivers/STM32F4xx_HAL_Driver/Src/stm32f4xx_hal_rtc_ex.c ****   * @retval HAL status
 616:Drivers/STM32F4xx_HAL_Driver/Src/stm32f4xx_hal_rtc_ex.c ****   */
 617:Drivers/STM32F4xx_HAL_Driver/Src/stm32f4xx_hal_rtc_ex.c **** HAL_StatusTypeDef HAL_RTCEx_PollForTimeStampEvent(RTC_HandleTypeDef *hrtc, uint32_t Timeout)
 618:Drivers/STM32F4xx_HAL_Driver/Src/stm32f4xx_hal_rtc_ex.c **** { 
 921              		.loc 1 618 0
 922              		.cfi_startproc
 923              		@ args = 0, pretend = 0, frame = 0
 924              		@ frame_needed = 0, uses_anonymous_args = 0
 925              	.LVL72:
 926 0000 70B5     		push	{r4, r5, r6, lr}
 927              	.LCFI16:
 928              		.cfi_def_cfa_offset 16
 929              		.cfi_offset 4, -16
 930              		.cfi_offset 5, -12
 931              		.cfi_offset 6, -8
 932              		.cfi_offset 14, -4
 933 0002 0446     		mov	r4, r0
 934 0004 0D46     		mov	r5, r1
 935              	.LVL73:
 619:Drivers/STM32F4xx_HAL_Driver/Src/stm32f4xx_hal_rtc_ex.c ****   uint32_t tickstart = 0U; 
 620:Drivers/STM32F4xx_HAL_Driver/Src/stm32f4xx_hal_rtc_ex.c **** 
 621:Drivers/STM32F4xx_HAL_Driver/Src/stm32f4xx_hal_rtc_ex.c ****   /* Get tick */
 622:Drivers/STM32F4xx_HAL_Driver/Src/stm32f4xx_hal_rtc_ex.c ****   tickstart = HAL_GetTick();
 936              		.loc 1 622 0
 937 0006 FFF7FEFF 		bl	HAL_GetTick
 938              	.LVL74:
 939 000a 0646     		mov	r6, r0
 940              	.LVL75:
 941              	.L63:
 623:Drivers/STM32F4xx_HAL_Driver/Src/stm32f4xx_hal_rtc_ex.c **** 
 624:Drivers/STM32F4xx_HAL_Driver/Src/stm32f4xx_hal_rtc_ex.c ****   while(__HAL_RTC_TIMESTAMP_GET_FLAG(hrtc, RTC_FLAG_TSF) == RESET)
 942              		.loc 1 624 0
 943 000c 2368     		ldr	r3, [r4]
 944 000e DA68     		ldr	r2, [r3, #12]
 945 0010 12F4006F 		tst	r2, #2048
 946 0014 18D1     		bne	.L67
 625:Drivers/STM32F4xx_HAL_Driver/Src/stm32f4xx_hal_rtc_ex.c ****   {
 626:Drivers/STM32F4xx_HAL_Driver/Src/stm32f4xx_hal_rtc_ex.c ****     if(__HAL_RTC_TIMESTAMP_GET_FLAG(hrtc, RTC_FLAG_TSOVF) != RESET)
 947              		.loc 1 626 0
 948 0016 DA68     		ldr	r2, [r3, #12]
 949 0018 12F4805F 		tst	r2, #4096
 950 001c 0BD1     		bne	.L68
 627:Drivers/STM32F4xx_HAL_Driver/Src/stm32f4xx_hal_rtc_ex.c ****     {
 628:Drivers/STM32F4xx_HAL_Driver/Src/stm32f4xx_hal_rtc_ex.c ****       /* Clear the TIMESTAMP Overrun Flag */
 629:Drivers/STM32F4xx_HAL_Driver/Src/stm32f4xx_hal_rtc_ex.c ****       __HAL_RTC_TIMESTAMP_CLEAR_FLAG(hrtc, RTC_FLAG_TSOVF);
ARM GAS  C:\Users\svcgu\AppData\Local\Temp\ccZ0uYCg.s 			page 29


 630:Drivers/STM32F4xx_HAL_Driver/Src/stm32f4xx_hal_rtc_ex.c ****       
 631:Drivers/STM32F4xx_HAL_Driver/Src/stm32f4xx_hal_rtc_ex.c ****       /* Change TIMESTAMP state */
 632:Drivers/STM32F4xx_HAL_Driver/Src/stm32f4xx_hal_rtc_ex.c ****       hrtc->State = HAL_RTC_STATE_ERROR; 
 633:Drivers/STM32F4xx_HAL_Driver/Src/stm32f4xx_hal_rtc_ex.c ****       
 634:Drivers/STM32F4xx_HAL_Driver/Src/stm32f4xx_hal_rtc_ex.c ****       return HAL_ERROR; 
 635:Drivers/STM32F4xx_HAL_Driver/Src/stm32f4xx_hal_rtc_ex.c ****     }
 636:Drivers/STM32F4xx_HAL_Driver/Src/stm32f4xx_hal_rtc_ex.c ****     
 637:Drivers/STM32F4xx_HAL_Driver/Src/stm32f4xx_hal_rtc_ex.c ****     if(Timeout != HAL_MAX_DELAY)
 951              		.loc 1 637 0
 952 001e B5F1FF3F 		cmp	r5, #-1
 953 0022 F3D0     		beq	.L63
 638:Drivers/STM32F4xx_HAL_Driver/Src/stm32f4xx_hal_rtc_ex.c ****     {
 639:Drivers/STM32F4xx_HAL_Driver/Src/stm32f4xx_hal_rtc_ex.c ****       if((Timeout == 0U)||((HAL_GetTick() - tickstart ) > Timeout))
 954              		.loc 1 639 0
 955 0024 25B1     		cbz	r5, .L64
 956              		.loc 1 639 0 is_stmt 0 discriminator 1
 957 0026 FFF7FEFF 		bl	HAL_GetTick
 958              	.LVL76:
 959 002a 801B     		subs	r0, r0, r6
 960 002c 8542     		cmp	r5, r0
 961 002e EDD2     		bcs	.L63
 962              	.L64:
 640:Drivers/STM32F4xx_HAL_Driver/Src/stm32f4xx_hal_rtc_ex.c ****       {
 641:Drivers/STM32F4xx_HAL_Driver/Src/stm32f4xx_hal_rtc_ex.c ****         hrtc->State = HAL_RTC_STATE_TIMEOUT;
 963              		.loc 1 641 0 is_stmt 1
 964 0030 0320     		movs	r0, #3
 965 0032 6077     		strb	r0, [r4, #29]
 642:Drivers/STM32F4xx_HAL_Driver/Src/stm32f4xx_hal_rtc_ex.c ****         return HAL_TIMEOUT;
 966              		.loc 1 642 0
 967 0034 70BD     		pop	{r4, r5, r6, pc}
 968              	.LVL77:
 969              	.L68:
 629:Drivers/STM32F4xx_HAL_Driver/Src/stm32f4xx_hal_rtc_ex.c ****       
 970              		.loc 1 629 0
 971 0036 DA68     		ldr	r2, [r3, #12]
 972 0038 D2B2     		uxtb	r2, r2
 973 003a 62F48452 		orn	r2, r2, #4224
 974 003e DA60     		str	r2, [r3, #12]
 632:Drivers/STM32F4xx_HAL_Driver/Src/stm32f4xx_hal_rtc_ex.c ****       
 975              		.loc 1 632 0
 976 0040 0423     		movs	r3, #4
 977 0042 6377     		strb	r3, [r4, #29]
 634:Drivers/STM32F4xx_HAL_Driver/Src/stm32f4xx_hal_rtc_ex.c ****     }
 978              		.loc 1 634 0
 979 0044 0120     		movs	r0, #1
 980 0046 70BD     		pop	{r4, r5, r6, pc}
 981              	.LVL78:
 982              	.L67:
 643:Drivers/STM32F4xx_HAL_Driver/Src/stm32f4xx_hal_rtc_ex.c ****       }
 644:Drivers/STM32F4xx_HAL_Driver/Src/stm32f4xx_hal_rtc_ex.c ****     }
 645:Drivers/STM32F4xx_HAL_Driver/Src/stm32f4xx_hal_rtc_ex.c ****   }
 646:Drivers/STM32F4xx_HAL_Driver/Src/stm32f4xx_hal_rtc_ex.c ****   
 647:Drivers/STM32F4xx_HAL_Driver/Src/stm32f4xx_hal_rtc_ex.c ****   /* Change RTC state */
 648:Drivers/STM32F4xx_HAL_Driver/Src/stm32f4xx_hal_rtc_ex.c ****   hrtc->State = HAL_RTC_STATE_READY; 
 983              		.loc 1 648 0
 984 0048 0123     		movs	r3, #1
 985 004a 6377     		strb	r3, [r4, #29]
ARM GAS  C:\Users\svcgu\AppData\Local\Temp\ccZ0uYCg.s 			page 30


 649:Drivers/STM32F4xx_HAL_Driver/Src/stm32f4xx_hal_rtc_ex.c ****   
 650:Drivers/STM32F4xx_HAL_Driver/Src/stm32f4xx_hal_rtc_ex.c ****   return HAL_OK; 
 986              		.loc 1 650 0
 987 004c 0020     		movs	r0, #0
 651:Drivers/STM32F4xx_HAL_Driver/Src/stm32f4xx_hal_rtc_ex.c **** }
 988              		.loc 1 651 0
 989 004e 70BD     		pop	{r4, r5, r6, pc}
 990              		.cfi_endproc
 991              	.LFE135:
 993              		.section	.text.HAL_RTCEx_PollForTamper1Event,"ax",%progbits
 994              		.align	1
 995              		.global	HAL_RTCEx_PollForTamper1Event
 996              		.syntax unified
 997              		.thumb
 998              		.thumb_func
 999              		.fpu fpv4-sp-d16
 1001              	HAL_RTCEx_PollForTamper1Event:
 1002              	.LFB136:
 652:Drivers/STM32F4xx_HAL_Driver/Src/stm32f4xx_hal_rtc_ex.c ****   
 653:Drivers/STM32F4xx_HAL_Driver/Src/stm32f4xx_hal_rtc_ex.c **** /**
 654:Drivers/STM32F4xx_HAL_Driver/Src/stm32f4xx_hal_rtc_ex.c ****   * @brief  This function handles Tamper1 Polling.
 655:Drivers/STM32F4xx_HAL_Driver/Src/stm32f4xx_hal_rtc_ex.c ****   * @param  hrtc pointer to a RTC_HandleTypeDef structure that contains
 656:Drivers/STM32F4xx_HAL_Driver/Src/stm32f4xx_hal_rtc_ex.c ****   *                the configuration information for RTC.
 657:Drivers/STM32F4xx_HAL_Driver/Src/stm32f4xx_hal_rtc_ex.c ****   * @param  Timeout Timeout duration
 658:Drivers/STM32F4xx_HAL_Driver/Src/stm32f4xx_hal_rtc_ex.c ****   * @retval HAL status
 659:Drivers/STM32F4xx_HAL_Driver/Src/stm32f4xx_hal_rtc_ex.c ****   */
 660:Drivers/STM32F4xx_HAL_Driver/Src/stm32f4xx_hal_rtc_ex.c **** HAL_StatusTypeDef HAL_RTCEx_PollForTamper1Event(RTC_HandleTypeDef *hrtc, uint32_t Timeout)
 661:Drivers/STM32F4xx_HAL_Driver/Src/stm32f4xx_hal_rtc_ex.c **** {  
 1003              		.loc 1 661 0
 1004              		.cfi_startproc
 1005              		@ args = 0, pretend = 0, frame = 0
 1006              		@ frame_needed = 0, uses_anonymous_args = 0
 1007              	.LVL79:
 1008 0000 70B5     		push	{r4, r5, r6, lr}
 1009              	.LCFI17:
 1010              		.cfi_def_cfa_offset 16
 1011              		.cfi_offset 4, -16
 1012              		.cfi_offset 5, -12
 1013              		.cfi_offset 6, -8
 1014              		.cfi_offset 14, -4
 1015 0002 0446     		mov	r4, r0
 1016 0004 0D46     		mov	r5, r1
 1017              	.LVL80:
 662:Drivers/STM32F4xx_HAL_Driver/Src/stm32f4xx_hal_rtc_ex.c ****   uint32_t tickstart = 0U; 
 663:Drivers/STM32F4xx_HAL_Driver/Src/stm32f4xx_hal_rtc_ex.c **** 
 664:Drivers/STM32F4xx_HAL_Driver/Src/stm32f4xx_hal_rtc_ex.c ****   /* Get tick */
 665:Drivers/STM32F4xx_HAL_Driver/Src/stm32f4xx_hal_rtc_ex.c ****   tickstart = HAL_GetTick();
 1018              		.loc 1 665 0
 1019 0006 FFF7FEFF 		bl	HAL_GetTick
 1020              	.LVL81:
 1021 000a 0646     		mov	r6, r0
 1022              	.LVL82:
 1023              	.L71:
 666:Drivers/STM32F4xx_HAL_Driver/Src/stm32f4xx_hal_rtc_ex.c ****   
 667:Drivers/STM32F4xx_HAL_Driver/Src/stm32f4xx_hal_rtc_ex.c ****   /* Get the status of the Interrupt */
 668:Drivers/STM32F4xx_HAL_Driver/Src/stm32f4xx_hal_rtc_ex.c ****   while(__HAL_RTC_TAMPER_GET_FLAG(hrtc, RTC_FLAG_TAMP1F)== RESET)
 1024              		.loc 1 668 0
ARM GAS  C:\Users\svcgu\AppData\Local\Temp\ccZ0uYCg.s 			page 31


 1025 000c 2368     		ldr	r3, [r4]
 1026 000e DA68     		ldr	r2, [r3, #12]
 1027 0010 12F4005F 		tst	r2, #8192
 1028 0014 0BD1     		bne	.L76
 669:Drivers/STM32F4xx_HAL_Driver/Src/stm32f4xx_hal_rtc_ex.c ****   {
 670:Drivers/STM32F4xx_HAL_Driver/Src/stm32f4xx_hal_rtc_ex.c ****     if(Timeout != HAL_MAX_DELAY)
 1029              		.loc 1 670 0
 1030 0016 B5F1FF3F 		cmp	r5, #-1
 1031 001a F7D0     		beq	.L71
 671:Drivers/STM32F4xx_HAL_Driver/Src/stm32f4xx_hal_rtc_ex.c ****     {
 672:Drivers/STM32F4xx_HAL_Driver/Src/stm32f4xx_hal_rtc_ex.c ****       if((Timeout == 0U)||((HAL_GetTick() - tickstart ) > Timeout))
 1032              		.loc 1 672 0
 1033 001c 25B1     		cbz	r5, .L72
 1034              		.loc 1 672 0 is_stmt 0 discriminator 1
 1035 001e FFF7FEFF 		bl	HAL_GetTick
 1036              	.LVL83:
 1037 0022 801B     		subs	r0, r0, r6
 1038 0024 8542     		cmp	r5, r0
 1039 0026 F1D2     		bcs	.L71
 1040              	.L72:
 673:Drivers/STM32F4xx_HAL_Driver/Src/stm32f4xx_hal_rtc_ex.c ****       {
 674:Drivers/STM32F4xx_HAL_Driver/Src/stm32f4xx_hal_rtc_ex.c ****         hrtc->State = HAL_RTC_STATE_TIMEOUT;
 1041              		.loc 1 674 0 is_stmt 1
 1042 0028 0320     		movs	r0, #3
 1043 002a 6077     		strb	r0, [r4, #29]
 675:Drivers/STM32F4xx_HAL_Driver/Src/stm32f4xx_hal_rtc_ex.c ****         return HAL_TIMEOUT;
 1044              		.loc 1 675 0
 1045 002c 70BD     		pop	{r4, r5, r6, pc}
 1046              	.LVL84:
 1047              	.L76:
 676:Drivers/STM32F4xx_HAL_Driver/Src/stm32f4xx_hal_rtc_ex.c ****       }
 677:Drivers/STM32F4xx_HAL_Driver/Src/stm32f4xx_hal_rtc_ex.c ****     }
 678:Drivers/STM32F4xx_HAL_Driver/Src/stm32f4xx_hal_rtc_ex.c ****   }
 679:Drivers/STM32F4xx_HAL_Driver/Src/stm32f4xx_hal_rtc_ex.c ****   
 680:Drivers/STM32F4xx_HAL_Driver/Src/stm32f4xx_hal_rtc_ex.c ****   /* Clear the Tamper Flag */
 681:Drivers/STM32F4xx_HAL_Driver/Src/stm32f4xx_hal_rtc_ex.c ****   __HAL_RTC_TAMPER_CLEAR_FLAG(hrtc,RTC_FLAG_TAMP1F);
 1048              		.loc 1 681 0
 1049 002e DA68     		ldr	r2, [r3, #12]
 1050 0030 D2B2     		uxtb	r2, r2
 1051 0032 62F40252 		orn	r2, r2, #8320
 1052 0036 DA60     		str	r2, [r3, #12]
 682:Drivers/STM32F4xx_HAL_Driver/Src/stm32f4xx_hal_rtc_ex.c ****   
 683:Drivers/STM32F4xx_HAL_Driver/Src/stm32f4xx_hal_rtc_ex.c ****   /* Change RTC state */
 684:Drivers/STM32F4xx_HAL_Driver/Src/stm32f4xx_hal_rtc_ex.c ****   hrtc->State = HAL_RTC_STATE_READY;
 1053              		.loc 1 684 0
 1054 0038 0123     		movs	r3, #1
 1055 003a 6377     		strb	r3, [r4, #29]
 685:Drivers/STM32F4xx_HAL_Driver/Src/stm32f4xx_hal_rtc_ex.c ****   
 686:Drivers/STM32F4xx_HAL_Driver/Src/stm32f4xx_hal_rtc_ex.c ****   return HAL_OK; 
 1056              		.loc 1 686 0
 1057 003c 0020     		movs	r0, #0
 687:Drivers/STM32F4xx_HAL_Driver/Src/stm32f4xx_hal_rtc_ex.c **** }
 1058              		.loc 1 687 0
 1059 003e 70BD     		pop	{r4, r5, r6, pc}
 1060              		.cfi_endproc
 1061              	.LFE136:
 1063              		.section	.text.HAL_RTCEx_PollForTamper2Event,"ax",%progbits
ARM GAS  C:\Users\svcgu\AppData\Local\Temp\ccZ0uYCg.s 			page 32


 1064              		.align	1
 1065              		.global	HAL_RTCEx_PollForTamper2Event
 1066              		.syntax unified
 1067              		.thumb
 1068              		.thumb_func
 1069              		.fpu fpv4-sp-d16
 1071              	HAL_RTCEx_PollForTamper2Event:
 1072              	.LFB137:
 688:Drivers/STM32F4xx_HAL_Driver/Src/stm32f4xx_hal_rtc_ex.c **** 
 689:Drivers/STM32F4xx_HAL_Driver/Src/stm32f4xx_hal_rtc_ex.c **** /**
 690:Drivers/STM32F4xx_HAL_Driver/Src/stm32f4xx_hal_rtc_ex.c ****   * @brief  This function handles Tamper2 Polling.
 691:Drivers/STM32F4xx_HAL_Driver/Src/stm32f4xx_hal_rtc_ex.c ****   * @param  hrtc pointer to a RTC_HandleTypeDef structure that contains
 692:Drivers/STM32F4xx_HAL_Driver/Src/stm32f4xx_hal_rtc_ex.c ****   *                the configuration information for RTC.
 693:Drivers/STM32F4xx_HAL_Driver/Src/stm32f4xx_hal_rtc_ex.c ****   * @param  Timeout Timeout duration
 694:Drivers/STM32F4xx_HAL_Driver/Src/stm32f4xx_hal_rtc_ex.c ****   * @retval HAL status
 695:Drivers/STM32F4xx_HAL_Driver/Src/stm32f4xx_hal_rtc_ex.c ****   */
 696:Drivers/STM32F4xx_HAL_Driver/Src/stm32f4xx_hal_rtc_ex.c **** HAL_StatusTypeDef HAL_RTCEx_PollForTamper2Event(RTC_HandleTypeDef *hrtc, uint32_t Timeout)
 697:Drivers/STM32F4xx_HAL_Driver/Src/stm32f4xx_hal_rtc_ex.c **** {  
 1073              		.loc 1 697 0
 1074              		.cfi_startproc
 1075              		@ args = 0, pretend = 0, frame = 0
 1076              		@ frame_needed = 0, uses_anonymous_args = 0
 1077              	.LVL85:
 1078 0000 70B5     		push	{r4, r5, r6, lr}
 1079              	.LCFI18:
 1080              		.cfi_def_cfa_offset 16
 1081              		.cfi_offset 4, -16
 1082              		.cfi_offset 5, -12
 1083              		.cfi_offset 6, -8
 1084              		.cfi_offset 14, -4
 1085 0002 0446     		mov	r4, r0
 1086 0004 0D46     		mov	r5, r1
 1087              	.LVL86:
 698:Drivers/STM32F4xx_HAL_Driver/Src/stm32f4xx_hal_rtc_ex.c ****   uint32_t tickstart = 0U; 
 699:Drivers/STM32F4xx_HAL_Driver/Src/stm32f4xx_hal_rtc_ex.c **** 
 700:Drivers/STM32F4xx_HAL_Driver/Src/stm32f4xx_hal_rtc_ex.c ****   /* Get tick */
 701:Drivers/STM32F4xx_HAL_Driver/Src/stm32f4xx_hal_rtc_ex.c ****   tickstart = HAL_GetTick();
 1088              		.loc 1 701 0
 1089 0006 FFF7FEFF 		bl	HAL_GetTick
 1090              	.LVL87:
 1091 000a 0646     		mov	r6, r0
 1092              	.LVL88:
 1093              	.L79:
 702:Drivers/STM32F4xx_HAL_Driver/Src/stm32f4xx_hal_rtc_ex.c ****   
 703:Drivers/STM32F4xx_HAL_Driver/Src/stm32f4xx_hal_rtc_ex.c ****   /* Get the status of the Interrupt */
 704:Drivers/STM32F4xx_HAL_Driver/Src/stm32f4xx_hal_rtc_ex.c ****   while(__HAL_RTC_TAMPER_GET_FLAG(hrtc, RTC_FLAG_TAMP2F) == RESET)
 1094              		.loc 1 704 0
 1095 000c 2368     		ldr	r3, [r4]
 1096 000e DA68     		ldr	r2, [r3, #12]
 1097 0010 12F4804F 		tst	r2, #16384
 1098 0014 0BD1     		bne	.L84
 705:Drivers/STM32F4xx_HAL_Driver/Src/stm32f4xx_hal_rtc_ex.c ****   {
 706:Drivers/STM32F4xx_HAL_Driver/Src/stm32f4xx_hal_rtc_ex.c ****     if(Timeout != HAL_MAX_DELAY)
 1099              		.loc 1 706 0
 1100 0016 B5F1FF3F 		cmp	r5, #-1
 1101 001a F7D0     		beq	.L79
 707:Drivers/STM32F4xx_HAL_Driver/Src/stm32f4xx_hal_rtc_ex.c ****     {
ARM GAS  C:\Users\svcgu\AppData\Local\Temp\ccZ0uYCg.s 			page 33


 708:Drivers/STM32F4xx_HAL_Driver/Src/stm32f4xx_hal_rtc_ex.c ****       if((Timeout == 0U)||((HAL_GetTick() - tickstart ) > Timeout))
 1102              		.loc 1 708 0
 1103 001c 25B1     		cbz	r5, .L80
 1104              		.loc 1 708 0 is_stmt 0 discriminator 1
 1105 001e FFF7FEFF 		bl	HAL_GetTick
 1106              	.LVL89:
 1107 0022 801B     		subs	r0, r0, r6
 1108 0024 8542     		cmp	r5, r0
 1109 0026 F1D2     		bcs	.L79
 1110              	.L80:
 709:Drivers/STM32F4xx_HAL_Driver/Src/stm32f4xx_hal_rtc_ex.c ****       {
 710:Drivers/STM32F4xx_HAL_Driver/Src/stm32f4xx_hal_rtc_ex.c ****         hrtc->State = HAL_RTC_STATE_TIMEOUT;
 1111              		.loc 1 710 0 is_stmt 1
 1112 0028 0320     		movs	r0, #3
 1113 002a 6077     		strb	r0, [r4, #29]
 711:Drivers/STM32F4xx_HAL_Driver/Src/stm32f4xx_hal_rtc_ex.c ****         return HAL_TIMEOUT;
 1114              		.loc 1 711 0
 1115 002c 70BD     		pop	{r4, r5, r6, pc}
 1116              	.LVL90:
 1117              	.L84:
 712:Drivers/STM32F4xx_HAL_Driver/Src/stm32f4xx_hal_rtc_ex.c ****       }
 713:Drivers/STM32F4xx_HAL_Driver/Src/stm32f4xx_hal_rtc_ex.c ****     }
 714:Drivers/STM32F4xx_HAL_Driver/Src/stm32f4xx_hal_rtc_ex.c ****   }
 715:Drivers/STM32F4xx_HAL_Driver/Src/stm32f4xx_hal_rtc_ex.c ****   
 716:Drivers/STM32F4xx_HAL_Driver/Src/stm32f4xx_hal_rtc_ex.c ****   /* Clear the Tamper Flag */
 717:Drivers/STM32F4xx_HAL_Driver/Src/stm32f4xx_hal_rtc_ex.c ****   __HAL_RTC_TAMPER_CLEAR_FLAG(hrtc,RTC_FLAG_TAMP2F);
 1118              		.loc 1 717 0
 1119 002e DA68     		ldr	r2, [r3, #12]
 1120 0030 D2B2     		uxtb	r2, r2
 1121 0032 62F48142 		orn	r2, r2, #16512
 1122 0036 DA60     		str	r2, [r3, #12]
 718:Drivers/STM32F4xx_HAL_Driver/Src/stm32f4xx_hal_rtc_ex.c ****   
 719:Drivers/STM32F4xx_HAL_Driver/Src/stm32f4xx_hal_rtc_ex.c ****   /* Change RTC state */
 720:Drivers/STM32F4xx_HAL_Driver/Src/stm32f4xx_hal_rtc_ex.c ****   hrtc->State = HAL_RTC_STATE_READY;
 1123              		.loc 1 720 0
 1124 0038 0123     		movs	r3, #1
 1125 003a 6377     		strb	r3, [r4, #29]
 721:Drivers/STM32F4xx_HAL_Driver/Src/stm32f4xx_hal_rtc_ex.c ****   
 722:Drivers/STM32F4xx_HAL_Driver/Src/stm32f4xx_hal_rtc_ex.c ****   return HAL_OK;
 1126              		.loc 1 722 0
 1127 003c 0020     		movs	r0, #0
 723:Drivers/STM32F4xx_HAL_Driver/Src/stm32f4xx_hal_rtc_ex.c **** }
 1128              		.loc 1 723 0
 1129 003e 70BD     		pop	{r4, r5, r6, pc}
 1130              		.cfi_endproc
 1131              	.LFE137:
 1133              		.section	.text.HAL_RTCEx_SetWakeUpTimer,"ax",%progbits
 1134              		.align	1
 1135              		.global	HAL_RTCEx_SetWakeUpTimer
 1136              		.syntax unified
 1137              		.thumb
 1138              		.thumb_func
 1139              		.fpu fpv4-sp-d16
 1141              	HAL_RTCEx_SetWakeUpTimer:
 1142              	.LFB138:
 724:Drivers/STM32F4xx_HAL_Driver/Src/stm32f4xx_hal_rtc_ex.c **** 
 725:Drivers/STM32F4xx_HAL_Driver/Src/stm32f4xx_hal_rtc_ex.c **** /**
ARM GAS  C:\Users\svcgu\AppData\Local\Temp\ccZ0uYCg.s 			page 34


 726:Drivers/STM32F4xx_HAL_Driver/Src/stm32f4xx_hal_rtc_ex.c ****   * @}
 727:Drivers/STM32F4xx_HAL_Driver/Src/stm32f4xx_hal_rtc_ex.c ****   */
 728:Drivers/STM32F4xx_HAL_Driver/Src/stm32f4xx_hal_rtc_ex.c ****   
 729:Drivers/STM32F4xx_HAL_Driver/Src/stm32f4xx_hal_rtc_ex.c **** /** @defgroup RTCEx_Exported_Functions_Group2 RTC Wake-up functions
 730:Drivers/STM32F4xx_HAL_Driver/Src/stm32f4xx_hal_rtc_ex.c ****  *  @brief   RTC Wake-up functions
 731:Drivers/STM32F4xx_HAL_Driver/Src/stm32f4xx_hal_rtc_ex.c ****  *
 732:Drivers/STM32F4xx_HAL_Driver/Src/stm32f4xx_hal_rtc_ex.c **** @verbatim   
 733:Drivers/STM32F4xx_HAL_Driver/Src/stm32f4xx_hal_rtc_ex.c ****  ===============================================================================
 734:Drivers/STM32F4xx_HAL_Driver/Src/stm32f4xx_hal_rtc_ex.c ****                         ##### RTC Wake-up functions #####
 735:Drivers/STM32F4xx_HAL_Driver/Src/stm32f4xx_hal_rtc_ex.c ****  ===============================================================================  
 736:Drivers/STM32F4xx_HAL_Driver/Src/stm32f4xx_hal_rtc_ex.c ****  
 737:Drivers/STM32F4xx_HAL_Driver/Src/stm32f4xx_hal_rtc_ex.c ****  [..] This section provides functions allowing to configure Wake-up feature
 738:Drivers/STM32F4xx_HAL_Driver/Src/stm32f4xx_hal_rtc_ex.c **** 
 739:Drivers/STM32F4xx_HAL_Driver/Src/stm32f4xx_hal_rtc_ex.c **** @endverbatim
 740:Drivers/STM32F4xx_HAL_Driver/Src/stm32f4xx_hal_rtc_ex.c ****   * @{
 741:Drivers/STM32F4xx_HAL_Driver/Src/stm32f4xx_hal_rtc_ex.c ****   */
 742:Drivers/STM32F4xx_HAL_Driver/Src/stm32f4xx_hal_rtc_ex.c **** 
 743:Drivers/STM32F4xx_HAL_Driver/Src/stm32f4xx_hal_rtc_ex.c **** /**
 744:Drivers/STM32F4xx_HAL_Driver/Src/stm32f4xx_hal_rtc_ex.c ****   * @brief  Sets wake up timer. 
 745:Drivers/STM32F4xx_HAL_Driver/Src/stm32f4xx_hal_rtc_ex.c ****   * @param  hrtc pointer to a RTC_HandleTypeDef structure that contains
 746:Drivers/STM32F4xx_HAL_Driver/Src/stm32f4xx_hal_rtc_ex.c ****   *                the configuration information for RTC.
 747:Drivers/STM32F4xx_HAL_Driver/Src/stm32f4xx_hal_rtc_ex.c ****   * @param  WakeUpCounter Wake up counter
 748:Drivers/STM32F4xx_HAL_Driver/Src/stm32f4xx_hal_rtc_ex.c ****   * @param  WakeUpClock Wake up clock  
 749:Drivers/STM32F4xx_HAL_Driver/Src/stm32f4xx_hal_rtc_ex.c ****   * @retval HAL status
 750:Drivers/STM32F4xx_HAL_Driver/Src/stm32f4xx_hal_rtc_ex.c ****   */
 751:Drivers/STM32F4xx_HAL_Driver/Src/stm32f4xx_hal_rtc_ex.c **** HAL_StatusTypeDef HAL_RTCEx_SetWakeUpTimer(RTC_HandleTypeDef *hrtc, uint32_t WakeUpCounter, uint32_
 752:Drivers/STM32F4xx_HAL_Driver/Src/stm32f4xx_hal_rtc_ex.c **** {
 1143              		.loc 1 752 0
 1144              		.cfi_startproc
 1145              		@ args = 0, pretend = 0, frame = 0
 1146              		@ frame_needed = 0, uses_anonymous_args = 0
 1147              	.LVL91:
 1148 0000 F8B5     		push	{r3, r4, r5, r6, r7, lr}
 1149              	.LCFI19:
 1150              		.cfi_def_cfa_offset 24
 1151              		.cfi_offset 3, -24
 1152              		.cfi_offset 4, -20
 1153              		.cfi_offset 5, -16
 1154              		.cfi_offset 6, -12
 1155              		.cfi_offset 7, -8
 1156              		.cfi_offset 14, -4
 1157              	.LVL92:
 753:Drivers/STM32F4xx_HAL_Driver/Src/stm32f4xx_hal_rtc_ex.c ****   uint32_t tickstart = 0U;
 754:Drivers/STM32F4xx_HAL_Driver/Src/stm32f4xx_hal_rtc_ex.c **** 
 755:Drivers/STM32F4xx_HAL_Driver/Src/stm32f4xx_hal_rtc_ex.c ****   /* Check the parameters */
 756:Drivers/STM32F4xx_HAL_Driver/Src/stm32f4xx_hal_rtc_ex.c ****   assert_param(IS_RTC_WAKEUP_CLOCK(WakeUpClock));
 757:Drivers/STM32F4xx_HAL_Driver/Src/stm32f4xx_hal_rtc_ex.c ****   assert_param(IS_RTC_WAKEUP_COUNTER(WakeUpCounter));
 758:Drivers/STM32F4xx_HAL_Driver/Src/stm32f4xx_hal_rtc_ex.c ****  
 759:Drivers/STM32F4xx_HAL_Driver/Src/stm32f4xx_hal_rtc_ex.c ****   /* Process Locked */ 
 760:Drivers/STM32F4xx_HAL_Driver/Src/stm32f4xx_hal_rtc_ex.c ****   __HAL_LOCK(hrtc);
 1158              		.loc 1 760 0
 1159 0002 037F     		ldrb	r3, [r0, #28]	@ zero_extendqisi2
 1160 0004 012B     		cmp	r3, #1
 1161 0006 59D0     		beq	.L92
 1162 0008 1646     		mov	r6, r2
 1163 000a 0D46     		mov	r5, r1
 1164 000c 0446     		mov	r4, r0
ARM GAS  C:\Users\svcgu\AppData\Local\Temp\ccZ0uYCg.s 			page 35


 1165              		.loc 1 760 0 is_stmt 0 discriminator 2
 1166 000e 0123     		movs	r3, #1
 1167 0010 0377     		strb	r3, [r0, #28]
 761:Drivers/STM32F4xx_HAL_Driver/Src/stm32f4xx_hal_rtc_ex.c ****     
 762:Drivers/STM32F4xx_HAL_Driver/Src/stm32f4xx_hal_rtc_ex.c ****   hrtc->State = HAL_RTC_STATE_BUSY;
 1168              		.loc 1 762 0 is_stmt 1 discriminator 2
 1169 0012 0223     		movs	r3, #2
 1170 0014 4377     		strb	r3, [r0, #29]
 763:Drivers/STM32F4xx_HAL_Driver/Src/stm32f4xx_hal_rtc_ex.c ****   
 764:Drivers/STM32F4xx_HAL_Driver/Src/stm32f4xx_hal_rtc_ex.c ****   /* Disable the write protection for RTC registers */
 765:Drivers/STM32F4xx_HAL_Driver/Src/stm32f4xx_hal_rtc_ex.c ****   __HAL_RTC_WRITEPROTECTION_DISABLE(hrtc);
 1171              		.loc 1 765 0 discriminator 2
 1172 0016 0368     		ldr	r3, [r0]
 1173 0018 CA22     		movs	r2, #202
 1174              	.LVL93:
 1175 001a 5A62     		str	r2, [r3, #36]
 1176 001c 0368     		ldr	r3, [r0]
 1177 001e 5322     		movs	r2, #83
 1178 0020 5A62     		str	r2, [r3, #36]
 766:Drivers/STM32F4xx_HAL_Driver/Src/stm32f4xx_hal_rtc_ex.c **** 
 767:Drivers/STM32F4xx_HAL_Driver/Src/stm32f4xx_hal_rtc_ex.c ****   /*Check RTC WUTWF flag is reset only when wake up timer enabled*/
 768:Drivers/STM32F4xx_HAL_Driver/Src/stm32f4xx_hal_rtc_ex.c ****   if((hrtc->Instance->CR & RTC_CR_WUTE) != RESET)
 1179              		.loc 1 768 0 discriminator 2
 1180 0022 0368     		ldr	r3, [r0]
 1181 0024 9B68     		ldr	r3, [r3, #8]
 1182 0026 13F4806F 		tst	r3, #1024
 1183 002a 15D0     		beq	.L87
 769:Drivers/STM32F4xx_HAL_Driver/Src/stm32f4xx_hal_rtc_ex.c ****   {
 770:Drivers/STM32F4xx_HAL_Driver/Src/stm32f4xx_hal_rtc_ex.c ****     tickstart = HAL_GetTick();
 1184              		.loc 1 770 0
 1185 002c FFF7FEFF 		bl	HAL_GetTick
 1186              	.LVL94:
 1187 0030 0746     		mov	r7, r0
 1188              	.LVL95:
 1189              	.L88:
 771:Drivers/STM32F4xx_HAL_Driver/Src/stm32f4xx_hal_rtc_ex.c **** 
 772:Drivers/STM32F4xx_HAL_Driver/Src/stm32f4xx_hal_rtc_ex.c ****     /* Wait till RTC WUTWF flag is reset and if Time out is reached exit */
 773:Drivers/STM32F4xx_HAL_Driver/Src/stm32f4xx_hal_rtc_ex.c ****     while(__HAL_RTC_WAKEUPTIMER_GET_FLAG(hrtc, RTC_FLAG_WUTWF) == SET)
 1190              		.loc 1 773 0
 1191 0032 2368     		ldr	r3, [r4]
 1192 0034 DB68     		ldr	r3, [r3, #12]
 1193 0036 13F0040F 		tst	r3, #4
 1194 003a 0DD0     		beq	.L87
 774:Drivers/STM32F4xx_HAL_Driver/Src/stm32f4xx_hal_rtc_ex.c ****     {
 775:Drivers/STM32F4xx_HAL_Driver/Src/stm32f4xx_hal_rtc_ex.c ****       if((HAL_GetTick() - tickstart ) > RTC_TIMEOUT_VALUE)
 1195              		.loc 1 775 0
 1196 003c FFF7FEFF 		bl	HAL_GetTick
 1197              	.LVL96:
 1198 0040 C01B     		subs	r0, r0, r7
 1199 0042 B0F57A7F 		cmp	r0, #1000
 1200 0046 F4D9     		bls	.L88
 776:Drivers/STM32F4xx_HAL_Driver/Src/stm32f4xx_hal_rtc_ex.c ****       {
 777:Drivers/STM32F4xx_HAL_Driver/Src/stm32f4xx_hal_rtc_ex.c ****         /* Enable the write protection for RTC registers */
 778:Drivers/STM32F4xx_HAL_Driver/Src/stm32f4xx_hal_rtc_ex.c ****         __HAL_RTC_WRITEPROTECTION_ENABLE(hrtc);
 1201              		.loc 1 778 0
 1202 0048 2368     		ldr	r3, [r4]
 1203 004a FF22     		movs	r2, #255
ARM GAS  C:\Users\svcgu\AppData\Local\Temp\ccZ0uYCg.s 			page 36


 1204 004c 5A62     		str	r2, [r3, #36]
 779:Drivers/STM32F4xx_HAL_Driver/Src/stm32f4xx_hal_rtc_ex.c ****         
 780:Drivers/STM32F4xx_HAL_Driver/Src/stm32f4xx_hal_rtc_ex.c ****         hrtc->State = HAL_RTC_STATE_TIMEOUT;
 1205              		.loc 1 780 0
 1206 004e 0320     		movs	r0, #3
 1207 0050 6077     		strb	r0, [r4, #29]
 781:Drivers/STM32F4xx_HAL_Driver/Src/stm32f4xx_hal_rtc_ex.c **** 
 782:Drivers/STM32F4xx_HAL_Driver/Src/stm32f4xx_hal_rtc_ex.c ****         /* Process Unlocked */ 
 783:Drivers/STM32F4xx_HAL_Driver/Src/stm32f4xx_hal_rtc_ex.c ****         __HAL_UNLOCK(hrtc);
 1208              		.loc 1 783 0
 1209 0052 0023     		movs	r3, #0
 1210 0054 2377     		strb	r3, [r4, #28]
 784:Drivers/STM32F4xx_HAL_Driver/Src/stm32f4xx_hal_rtc_ex.c **** 
 785:Drivers/STM32F4xx_HAL_Driver/Src/stm32f4xx_hal_rtc_ex.c ****         return HAL_TIMEOUT;
 1211              		.loc 1 785 0
 1212 0056 F8BD     		pop	{r3, r4, r5, r6, r7, pc}
 1213              	.LVL97:
 1214              	.L87:
 786:Drivers/STM32F4xx_HAL_Driver/Src/stm32f4xx_hal_rtc_ex.c ****       }
 787:Drivers/STM32F4xx_HAL_Driver/Src/stm32f4xx_hal_rtc_ex.c ****     }
 788:Drivers/STM32F4xx_HAL_Driver/Src/stm32f4xx_hal_rtc_ex.c ****   }
 789:Drivers/STM32F4xx_HAL_Driver/Src/stm32f4xx_hal_rtc_ex.c **** 
 790:Drivers/STM32F4xx_HAL_Driver/Src/stm32f4xx_hal_rtc_ex.c ****   __HAL_RTC_WAKEUPTIMER_DISABLE(hrtc);
 1215              		.loc 1 790 0
 1216 0058 2268     		ldr	r2, [r4]
 1217 005a 9368     		ldr	r3, [r2, #8]
 1218 005c 23F48063 		bic	r3, r3, #1024
 1219 0060 9360     		str	r3, [r2, #8]
 791:Drivers/STM32F4xx_HAL_Driver/Src/stm32f4xx_hal_rtc_ex.c **** 
 792:Drivers/STM32F4xx_HAL_Driver/Src/stm32f4xx_hal_rtc_ex.c ****   tickstart = HAL_GetTick();
 1220              		.loc 1 792 0
 1221 0062 FFF7FEFF 		bl	HAL_GetTick
 1222              	.LVL98:
 1223 0066 0746     		mov	r7, r0
 1224              	.LVL99:
 1225              	.L90:
 793:Drivers/STM32F4xx_HAL_Driver/Src/stm32f4xx_hal_rtc_ex.c **** 
 794:Drivers/STM32F4xx_HAL_Driver/Src/stm32f4xx_hal_rtc_ex.c ****   /* Wait till RTC WUTWF flag is set and if Time out is reached exit */
 795:Drivers/STM32F4xx_HAL_Driver/Src/stm32f4xx_hal_rtc_ex.c ****   while(__HAL_RTC_WAKEUPTIMER_GET_FLAG(hrtc, RTC_FLAG_WUTWF) == RESET)
 1226              		.loc 1 795 0
 1227 0068 2368     		ldr	r3, [r4]
 1228 006a D868     		ldr	r0, [r3, #12]
 1229 006c 10F0040F 		tst	r0, #4
 1230 0070 0DD1     		bne	.L94
 796:Drivers/STM32F4xx_HAL_Driver/Src/stm32f4xx_hal_rtc_ex.c ****   {
 797:Drivers/STM32F4xx_HAL_Driver/Src/stm32f4xx_hal_rtc_ex.c ****     if((HAL_GetTick() - tickstart ) > RTC_TIMEOUT_VALUE)
 1231              		.loc 1 797 0
 1232 0072 FFF7FEFF 		bl	HAL_GetTick
 1233              	.LVL100:
 1234 0076 C01B     		subs	r0, r0, r7
 1235 0078 B0F57A7F 		cmp	r0, #1000
 1236 007c F4D9     		bls	.L90
 798:Drivers/STM32F4xx_HAL_Driver/Src/stm32f4xx_hal_rtc_ex.c ****     {
 799:Drivers/STM32F4xx_HAL_Driver/Src/stm32f4xx_hal_rtc_ex.c ****       /* Enable the write protection for RTC registers */
 800:Drivers/STM32F4xx_HAL_Driver/Src/stm32f4xx_hal_rtc_ex.c ****       __HAL_RTC_WRITEPROTECTION_ENABLE(hrtc);
 1237              		.loc 1 800 0
 1238 007e 2368     		ldr	r3, [r4]
ARM GAS  C:\Users\svcgu\AppData\Local\Temp\ccZ0uYCg.s 			page 37


 1239 0080 FF22     		movs	r2, #255
 1240 0082 5A62     		str	r2, [r3, #36]
 801:Drivers/STM32F4xx_HAL_Driver/Src/stm32f4xx_hal_rtc_ex.c **** 
 802:Drivers/STM32F4xx_HAL_Driver/Src/stm32f4xx_hal_rtc_ex.c ****       hrtc->State = HAL_RTC_STATE_TIMEOUT;
 1241              		.loc 1 802 0
 1242 0084 0320     		movs	r0, #3
 1243 0086 6077     		strb	r0, [r4, #29]
 803:Drivers/STM32F4xx_HAL_Driver/Src/stm32f4xx_hal_rtc_ex.c **** 
 804:Drivers/STM32F4xx_HAL_Driver/Src/stm32f4xx_hal_rtc_ex.c ****       /* Process Unlocked */ 
 805:Drivers/STM32F4xx_HAL_Driver/Src/stm32f4xx_hal_rtc_ex.c ****       __HAL_UNLOCK(hrtc);
 1244              		.loc 1 805 0
 1245 0088 0023     		movs	r3, #0
 1246 008a 2377     		strb	r3, [r4, #28]
 806:Drivers/STM32F4xx_HAL_Driver/Src/stm32f4xx_hal_rtc_ex.c **** 
 807:Drivers/STM32F4xx_HAL_Driver/Src/stm32f4xx_hal_rtc_ex.c ****       return HAL_TIMEOUT;
 1247              		.loc 1 807 0
 1248 008c F8BD     		pop	{r3, r4, r5, r6, r7, pc}
 1249              	.LVL101:
 1250              	.L94:
 808:Drivers/STM32F4xx_HAL_Driver/Src/stm32f4xx_hal_rtc_ex.c ****     }
 809:Drivers/STM32F4xx_HAL_Driver/Src/stm32f4xx_hal_rtc_ex.c ****   }
 810:Drivers/STM32F4xx_HAL_Driver/Src/stm32f4xx_hal_rtc_ex.c ****   
 811:Drivers/STM32F4xx_HAL_Driver/Src/stm32f4xx_hal_rtc_ex.c ****   /* Clear the Wake-up Timer clock source bits in CR register */
 812:Drivers/STM32F4xx_HAL_Driver/Src/stm32f4xx_hal_rtc_ex.c ****   hrtc->Instance->CR &= (uint32_t)~RTC_CR_WUCKSEL;
 1251              		.loc 1 812 0
 1252 008e 9A68     		ldr	r2, [r3, #8]
 1253 0090 22F00702 		bic	r2, r2, #7
 1254 0094 9A60     		str	r2, [r3, #8]
 813:Drivers/STM32F4xx_HAL_Driver/Src/stm32f4xx_hal_rtc_ex.c ****   
 814:Drivers/STM32F4xx_HAL_Driver/Src/stm32f4xx_hal_rtc_ex.c ****   /* Configure the clock source */
 815:Drivers/STM32F4xx_HAL_Driver/Src/stm32f4xx_hal_rtc_ex.c ****   hrtc->Instance->CR |= (uint32_t)WakeUpClock;
 1255              		.loc 1 815 0
 1256 0096 2268     		ldr	r2, [r4]
 1257 0098 9368     		ldr	r3, [r2, #8]
 1258 009a 1E43     		orrs	r6, r6, r3
 1259              	.LVL102:
 1260 009c 9660     		str	r6, [r2, #8]
 816:Drivers/STM32F4xx_HAL_Driver/Src/stm32f4xx_hal_rtc_ex.c ****   
 817:Drivers/STM32F4xx_HAL_Driver/Src/stm32f4xx_hal_rtc_ex.c ****   /* Configure the Wake-up Timer counter */
 818:Drivers/STM32F4xx_HAL_Driver/Src/stm32f4xx_hal_rtc_ex.c ****   hrtc->Instance->WUTR = (uint32_t)WakeUpCounter;
 1261              		.loc 1 818 0
 1262 009e 2368     		ldr	r3, [r4]
 1263 00a0 5D61     		str	r5, [r3, #20]
 819:Drivers/STM32F4xx_HAL_Driver/Src/stm32f4xx_hal_rtc_ex.c ****   
 820:Drivers/STM32F4xx_HAL_Driver/Src/stm32f4xx_hal_rtc_ex.c ****    /* Enable the Wake-up Timer */
 821:Drivers/STM32F4xx_HAL_Driver/Src/stm32f4xx_hal_rtc_ex.c ****   __HAL_RTC_WAKEUPTIMER_ENABLE(hrtc);   
 1264              		.loc 1 821 0
 1265 00a2 2268     		ldr	r2, [r4]
 1266 00a4 9368     		ldr	r3, [r2, #8]
 1267 00a6 43F48063 		orr	r3, r3, #1024
 1268 00aa 9360     		str	r3, [r2, #8]
 822:Drivers/STM32F4xx_HAL_Driver/Src/stm32f4xx_hal_rtc_ex.c ****   
 823:Drivers/STM32F4xx_HAL_Driver/Src/stm32f4xx_hal_rtc_ex.c ****   /* Enable the write protection for RTC registers */
 824:Drivers/STM32F4xx_HAL_Driver/Src/stm32f4xx_hal_rtc_ex.c ****   __HAL_RTC_WRITEPROTECTION_ENABLE(hrtc); 
 1269              		.loc 1 824 0
 1270 00ac 2368     		ldr	r3, [r4]
 1271 00ae FF22     		movs	r2, #255
ARM GAS  C:\Users\svcgu\AppData\Local\Temp\ccZ0uYCg.s 			page 38


 1272 00b0 5A62     		str	r2, [r3, #36]
 825:Drivers/STM32F4xx_HAL_Driver/Src/stm32f4xx_hal_rtc_ex.c ****   
 826:Drivers/STM32F4xx_HAL_Driver/Src/stm32f4xx_hal_rtc_ex.c ****   hrtc->State = HAL_RTC_STATE_READY;   
 1273              		.loc 1 826 0
 1274 00b2 0123     		movs	r3, #1
 1275 00b4 6377     		strb	r3, [r4, #29]
 827:Drivers/STM32F4xx_HAL_Driver/Src/stm32f4xx_hal_rtc_ex.c ****   
 828:Drivers/STM32F4xx_HAL_Driver/Src/stm32f4xx_hal_rtc_ex.c ****   /* Process Unlocked */ 
 829:Drivers/STM32F4xx_HAL_Driver/Src/stm32f4xx_hal_rtc_ex.c ****   __HAL_UNLOCK(hrtc);
 1276              		.loc 1 829 0
 1277 00b6 0020     		movs	r0, #0
 1278 00b8 2077     		strb	r0, [r4, #28]
 830:Drivers/STM32F4xx_HAL_Driver/Src/stm32f4xx_hal_rtc_ex.c ****   
 831:Drivers/STM32F4xx_HAL_Driver/Src/stm32f4xx_hal_rtc_ex.c ****   return HAL_OK;
 1279              		.loc 1 831 0
 1280 00ba F8BD     		pop	{r3, r4, r5, r6, r7, pc}
 1281              	.LVL103:
 1282              	.L92:
 760:Drivers/STM32F4xx_HAL_Driver/Src/stm32f4xx_hal_rtc_ex.c ****     
 1283              		.loc 1 760 0
 1284 00bc 0220     		movs	r0, #2
 1285              	.LVL104:
 832:Drivers/STM32F4xx_HAL_Driver/Src/stm32f4xx_hal_rtc_ex.c **** }
 1286              		.loc 1 832 0
 1287 00be F8BD     		pop	{r3, r4, r5, r6, r7, pc}
 1288              		.cfi_endproc
 1289              	.LFE138:
 1291              		.section	.text.HAL_RTCEx_SetWakeUpTimer_IT,"ax",%progbits
 1292              		.align	1
 1293              		.global	HAL_RTCEx_SetWakeUpTimer_IT
 1294              		.syntax unified
 1295              		.thumb
 1296              		.thumb_func
 1297              		.fpu fpv4-sp-d16
 1299              	HAL_RTCEx_SetWakeUpTimer_IT:
 1300              	.LFB139:
 833:Drivers/STM32F4xx_HAL_Driver/Src/stm32f4xx_hal_rtc_ex.c **** 
 834:Drivers/STM32F4xx_HAL_Driver/Src/stm32f4xx_hal_rtc_ex.c **** /**
 835:Drivers/STM32F4xx_HAL_Driver/Src/stm32f4xx_hal_rtc_ex.c ****   * @brief  Sets wake up timer with interrupt
 836:Drivers/STM32F4xx_HAL_Driver/Src/stm32f4xx_hal_rtc_ex.c ****   * @param  hrtc pointer to a RTC_HandleTypeDef structure that contains
 837:Drivers/STM32F4xx_HAL_Driver/Src/stm32f4xx_hal_rtc_ex.c ****   *                the configuration information for RTC.
 838:Drivers/STM32F4xx_HAL_Driver/Src/stm32f4xx_hal_rtc_ex.c ****   * @param  WakeUpCounter Wake up counter
 839:Drivers/STM32F4xx_HAL_Driver/Src/stm32f4xx_hal_rtc_ex.c ****   * @param  WakeUpClock Wake up clock  
 840:Drivers/STM32F4xx_HAL_Driver/Src/stm32f4xx_hal_rtc_ex.c ****   * @retval HAL status
 841:Drivers/STM32F4xx_HAL_Driver/Src/stm32f4xx_hal_rtc_ex.c ****   */
 842:Drivers/STM32F4xx_HAL_Driver/Src/stm32f4xx_hal_rtc_ex.c **** HAL_StatusTypeDef HAL_RTCEx_SetWakeUpTimer_IT(RTC_HandleTypeDef *hrtc, uint32_t WakeUpCounter, uint
 843:Drivers/STM32F4xx_HAL_Driver/Src/stm32f4xx_hal_rtc_ex.c **** {
 1301              		.loc 1 843 0
 1302              		.cfi_startproc
 1303              		@ args = 0, pretend = 0, frame = 8
 1304              		@ frame_needed = 0, uses_anonymous_args = 0
 1305              		@ link register save eliminated.
 1306              	.LVL105:
 844:Drivers/STM32F4xx_HAL_Driver/Src/stm32f4xx_hal_rtc_ex.c ****   __IO uint32_t count;
 845:Drivers/STM32F4xx_HAL_Driver/Src/stm32f4xx_hal_rtc_ex.c **** 
 846:Drivers/STM32F4xx_HAL_Driver/Src/stm32f4xx_hal_rtc_ex.c ****   /* Check the parameters */
 847:Drivers/STM32F4xx_HAL_Driver/Src/stm32f4xx_hal_rtc_ex.c ****   assert_param(IS_RTC_WAKEUP_CLOCK(WakeUpClock));
ARM GAS  C:\Users\svcgu\AppData\Local\Temp\ccZ0uYCg.s 			page 39


 848:Drivers/STM32F4xx_HAL_Driver/Src/stm32f4xx_hal_rtc_ex.c ****   assert_param(IS_RTC_WAKEUP_COUNTER(WakeUpCounter));
 849:Drivers/STM32F4xx_HAL_Driver/Src/stm32f4xx_hal_rtc_ex.c **** 
 850:Drivers/STM32F4xx_HAL_Driver/Src/stm32f4xx_hal_rtc_ex.c ****   /* Process Locked */ 
 851:Drivers/STM32F4xx_HAL_Driver/Src/stm32f4xx_hal_rtc_ex.c ****   __HAL_LOCK(hrtc);
 1307              		.loc 1 851 0
 1308 0000 037F     		ldrb	r3, [r0, #28]	@ zero_extendqisi2
 1309 0002 012B     		cmp	r3, #1
 1310 0004 7CD0     		beq	.L102
 843:Drivers/STM32F4xx_HAL_Driver/Src/stm32f4xx_hal_rtc_ex.c ****   __IO uint32_t count;
 1311              		.loc 1 843 0 discriminator 2
 1312 0006 30B4     		push	{r4, r5}
 1313              	.LCFI20:
 1314              		.cfi_def_cfa_offset 8
 1315              		.cfi_offset 4, -8
 1316              		.cfi_offset 5, -4
 1317 0008 82B0     		sub	sp, sp, #8
 1318              	.LCFI21:
 1319              		.cfi_def_cfa_offset 16
 1320              		.loc 1 851 0 discriminator 2
 1321 000a 0123     		movs	r3, #1
 1322 000c 0377     		strb	r3, [r0, #28]
 852:Drivers/STM32F4xx_HAL_Driver/Src/stm32f4xx_hal_rtc_ex.c **** 
 853:Drivers/STM32F4xx_HAL_Driver/Src/stm32f4xx_hal_rtc_ex.c ****   hrtc->State = HAL_RTC_STATE_BUSY;
 1323              		.loc 1 853 0 discriminator 2
 1324 000e 0223     		movs	r3, #2
 1325 0010 4377     		strb	r3, [r0, #29]
 854:Drivers/STM32F4xx_HAL_Driver/Src/stm32f4xx_hal_rtc_ex.c **** 
 855:Drivers/STM32F4xx_HAL_Driver/Src/stm32f4xx_hal_rtc_ex.c ****   /* Disable the write protection for RTC registers */
 856:Drivers/STM32F4xx_HAL_Driver/Src/stm32f4xx_hal_rtc_ex.c ****   __HAL_RTC_WRITEPROTECTION_DISABLE(hrtc);
 1326              		.loc 1 856 0 discriminator 2
 1327 0012 0368     		ldr	r3, [r0]
 1328 0014 CA24     		movs	r4, #202
 1329 0016 5C62     		str	r4, [r3, #36]
 1330 0018 0368     		ldr	r3, [r0]
 1331 001a 5324     		movs	r4, #83
 1332 001c 5C62     		str	r4, [r3, #36]
 857:Drivers/STM32F4xx_HAL_Driver/Src/stm32f4xx_hal_rtc_ex.c **** 
 858:Drivers/STM32F4xx_HAL_Driver/Src/stm32f4xx_hal_rtc_ex.c ****   /* Check RTC WUTWF flag is reset only when wake up timer enabled */
 859:Drivers/STM32F4xx_HAL_Driver/Src/stm32f4xx_hal_rtc_ex.c ****   if((hrtc->Instance->CR & RTC_CR_WUTE) != RESET)
 1333              		.loc 1 859 0 discriminator 2
 1334 001e 0568     		ldr	r5, [r0]
 1335 0020 AB68     		ldr	r3, [r5, #8]
 1336 0022 13F4806F 		tst	r3, #1024
 1337 0026 13D0     		beq	.L97
 860:Drivers/STM32F4xx_HAL_Driver/Src/stm32f4xx_hal_rtc_ex.c ****   {
 861:Drivers/STM32F4xx_HAL_Driver/Src/stm32f4xx_hal_rtc_ex.c ****     /* Wait till RTC WUTWF flag is reset and if Time out is reached exit */
 862:Drivers/STM32F4xx_HAL_Driver/Src/stm32f4xx_hal_rtc_ex.c ****     count = RTC_TIMEOUT_VALUE  * (SystemCoreClock / 32U / 1000U);
 1338              		.loc 1 862 0
 1339 0028 364B     		ldr	r3, .L109
 1340 002a 1B68     		ldr	r3, [r3]
 1341 002c 364C     		ldr	r4, .L109+4
 1342 002e A4FB0343 		umull	r4, r3, r4, r3
 1343 0032 DB0A     		lsrs	r3, r3, #11
 1344 0034 4FF47A74 		mov	r4, #1000
 1345 0038 04FB03F3 		mul	r3, r4, r3
 1346 003c 0193     		str	r3, [sp, #4]
 1347              	.L99:
ARM GAS  C:\Users\svcgu\AppData\Local\Temp\ccZ0uYCg.s 			page 40


 863:Drivers/STM32F4xx_HAL_Driver/Src/stm32f4xx_hal_rtc_ex.c ****     do
 864:Drivers/STM32F4xx_HAL_Driver/Src/stm32f4xx_hal_rtc_ex.c ****     {
 865:Drivers/STM32F4xx_HAL_Driver/Src/stm32f4xx_hal_rtc_ex.c ****       if(count-- == 0U)
 1348              		.loc 1 865 0
 1349 003e 019B     		ldr	r3, [sp, #4]
 1350 0040 5C1E     		subs	r4, r3, #1
 1351 0042 0194     		str	r4, [sp, #4]
 1352 0044 002B     		cmp	r3, #0
 1353 0046 48D0     		beq	.L107
 866:Drivers/STM32F4xx_HAL_Driver/Src/stm32f4xx_hal_rtc_ex.c ****       {
 867:Drivers/STM32F4xx_HAL_Driver/Src/stm32f4xx_hal_rtc_ex.c ****         /* Enable the write protection for RTC registers */
 868:Drivers/STM32F4xx_HAL_Driver/Src/stm32f4xx_hal_rtc_ex.c ****         __HAL_RTC_WRITEPROTECTION_ENABLE(hrtc);
 869:Drivers/STM32F4xx_HAL_Driver/Src/stm32f4xx_hal_rtc_ex.c **** 
 870:Drivers/STM32F4xx_HAL_Driver/Src/stm32f4xx_hal_rtc_ex.c ****         hrtc->State = HAL_RTC_STATE_TIMEOUT;
 871:Drivers/STM32F4xx_HAL_Driver/Src/stm32f4xx_hal_rtc_ex.c **** 
 872:Drivers/STM32F4xx_HAL_Driver/Src/stm32f4xx_hal_rtc_ex.c ****         /* Process Unlocked */
 873:Drivers/STM32F4xx_HAL_Driver/Src/stm32f4xx_hal_rtc_ex.c ****         __HAL_UNLOCK(hrtc);
 874:Drivers/STM32F4xx_HAL_Driver/Src/stm32f4xx_hal_rtc_ex.c **** 
 875:Drivers/STM32F4xx_HAL_Driver/Src/stm32f4xx_hal_rtc_ex.c ****         return HAL_TIMEOUT;
 876:Drivers/STM32F4xx_HAL_Driver/Src/stm32f4xx_hal_rtc_ex.c ****       }
 877:Drivers/STM32F4xx_HAL_Driver/Src/stm32f4xx_hal_rtc_ex.c ****     }
 878:Drivers/STM32F4xx_HAL_Driver/Src/stm32f4xx_hal_rtc_ex.c ****     while(__HAL_RTC_WAKEUPTIMER_GET_FLAG(hrtc, RTC_FLAG_WUTWF) == SET);
 1354              		.loc 1 878 0
 1355 0048 EB68     		ldr	r3, [r5, #12]
 1356 004a 13F0040F 		tst	r3, #4
 1357 004e F6D1     		bne	.L99
 1358              	.L97:
 879:Drivers/STM32F4xx_HAL_Driver/Src/stm32f4xx_hal_rtc_ex.c ****   }
 880:Drivers/STM32F4xx_HAL_Driver/Src/stm32f4xx_hal_rtc_ex.c **** 
 881:Drivers/STM32F4xx_HAL_Driver/Src/stm32f4xx_hal_rtc_ex.c ****   __HAL_RTC_WAKEUPTIMER_DISABLE(hrtc);
 1359              		.loc 1 881 0
 1360 0050 AB68     		ldr	r3, [r5, #8]
 1361 0052 23F48063 		bic	r3, r3, #1024
 1362 0056 AB60     		str	r3, [r5, #8]
 882:Drivers/STM32F4xx_HAL_Driver/Src/stm32f4xx_hal_rtc_ex.c **** 
 883:Drivers/STM32F4xx_HAL_Driver/Src/stm32f4xx_hal_rtc_ex.c ****   /* Wait till RTC WUTWF flag is set and if Time out is reached exit */
 884:Drivers/STM32F4xx_HAL_Driver/Src/stm32f4xx_hal_rtc_ex.c ****   count = RTC_TIMEOUT_VALUE  * (SystemCoreClock / 32U / 1000U);
 1363              		.loc 1 884 0
 1364 0058 2A4B     		ldr	r3, .L109
 1365 005a 1B68     		ldr	r3, [r3]
 1366 005c 2A4C     		ldr	r4, .L109+4
 1367 005e A4FB0343 		umull	r4, r3, r4, r3
 1368 0062 DB0A     		lsrs	r3, r3, #11
 1369 0064 4FF47A74 		mov	r4, #1000
 1370 0068 04FB03F3 		mul	r3, r4, r3
 1371 006c 0193     		str	r3, [sp, #4]
 1372              	.L101:
 885:Drivers/STM32F4xx_HAL_Driver/Src/stm32f4xx_hal_rtc_ex.c ****   do
 886:Drivers/STM32F4xx_HAL_Driver/Src/stm32f4xx_hal_rtc_ex.c ****   {
 887:Drivers/STM32F4xx_HAL_Driver/Src/stm32f4xx_hal_rtc_ex.c ****     if(count-- == 0U)
 1373              		.loc 1 887 0
 1374 006e 019B     		ldr	r3, [sp, #4]
 1375 0070 5C1E     		subs	r4, r3, #1
 1376 0072 0194     		str	r4, [sp, #4]
 1377 0074 002B     		cmp	r3, #0
 1378 0076 38D0     		beq	.L108
 888:Drivers/STM32F4xx_HAL_Driver/Src/stm32f4xx_hal_rtc_ex.c ****     {
ARM GAS  C:\Users\svcgu\AppData\Local\Temp\ccZ0uYCg.s 			page 41


 889:Drivers/STM32F4xx_HAL_Driver/Src/stm32f4xx_hal_rtc_ex.c ****       /* Enable the write protection for RTC registers */
 890:Drivers/STM32F4xx_HAL_Driver/Src/stm32f4xx_hal_rtc_ex.c ****       __HAL_RTC_WRITEPROTECTION_ENABLE(hrtc);
 891:Drivers/STM32F4xx_HAL_Driver/Src/stm32f4xx_hal_rtc_ex.c **** 
 892:Drivers/STM32F4xx_HAL_Driver/Src/stm32f4xx_hal_rtc_ex.c ****       hrtc->State = HAL_RTC_STATE_TIMEOUT;
 893:Drivers/STM32F4xx_HAL_Driver/Src/stm32f4xx_hal_rtc_ex.c **** 
 894:Drivers/STM32F4xx_HAL_Driver/Src/stm32f4xx_hal_rtc_ex.c ****       /* Process Unlocked */
 895:Drivers/STM32F4xx_HAL_Driver/Src/stm32f4xx_hal_rtc_ex.c ****       __HAL_UNLOCK(hrtc);
 896:Drivers/STM32F4xx_HAL_Driver/Src/stm32f4xx_hal_rtc_ex.c **** 
 897:Drivers/STM32F4xx_HAL_Driver/Src/stm32f4xx_hal_rtc_ex.c ****       return HAL_TIMEOUT;
 898:Drivers/STM32F4xx_HAL_Driver/Src/stm32f4xx_hal_rtc_ex.c ****     }
 899:Drivers/STM32F4xx_HAL_Driver/Src/stm32f4xx_hal_rtc_ex.c ****   }
 900:Drivers/STM32F4xx_HAL_Driver/Src/stm32f4xx_hal_rtc_ex.c ****   while(__HAL_RTC_WAKEUPTIMER_GET_FLAG(hrtc, RTC_FLAG_WUTWF) == RESET);
 1379              		.loc 1 900 0
 1380 0078 0368     		ldr	r3, [r0]
 1381 007a DC68     		ldr	r4, [r3, #12]
 1382 007c 14F0040F 		tst	r4, #4
 1383 0080 F5D0     		beq	.L101
 901:Drivers/STM32F4xx_HAL_Driver/Src/stm32f4xx_hal_rtc_ex.c ****         
 902:Drivers/STM32F4xx_HAL_Driver/Src/stm32f4xx_hal_rtc_ex.c ****   /* Configure the Wake-up Timer counter */
 903:Drivers/STM32F4xx_HAL_Driver/Src/stm32f4xx_hal_rtc_ex.c ****   hrtc->Instance->WUTR = (uint32_t)WakeUpCounter;
 1384              		.loc 1 903 0
 1385 0082 5961     		str	r1, [r3, #20]
 904:Drivers/STM32F4xx_HAL_Driver/Src/stm32f4xx_hal_rtc_ex.c **** 
 905:Drivers/STM32F4xx_HAL_Driver/Src/stm32f4xx_hal_rtc_ex.c ****   /* Clear the Wake-up Timer clock source bits in CR register */
 906:Drivers/STM32F4xx_HAL_Driver/Src/stm32f4xx_hal_rtc_ex.c ****   hrtc->Instance->CR &= (uint32_t)~RTC_CR_WUCKSEL;
 1386              		.loc 1 906 0
 1387 0084 0168     		ldr	r1, [r0]
 1388              	.LVL106:
 1389 0086 8B68     		ldr	r3, [r1, #8]
 1390              	.LVL107:
 1391 0088 23F00703 		bic	r3, r3, #7
 1392 008c 8B60     		str	r3, [r1, #8]
 907:Drivers/STM32F4xx_HAL_Driver/Src/stm32f4xx_hal_rtc_ex.c **** 
 908:Drivers/STM32F4xx_HAL_Driver/Src/stm32f4xx_hal_rtc_ex.c ****   /* Configure the clock source */
 909:Drivers/STM32F4xx_HAL_Driver/Src/stm32f4xx_hal_rtc_ex.c ****   hrtc->Instance->CR |= (uint32_t)WakeUpClock;
 1393              		.loc 1 909 0
 1394 008e 0168     		ldr	r1, [r0]
 1395 0090 8B68     		ldr	r3, [r1, #8]
 1396 0092 1A43     		orrs	r2, r2, r3
 1397              	.LVL108:
 1398 0094 8A60     		str	r2, [r1, #8]
 910:Drivers/STM32F4xx_HAL_Driver/Src/stm32f4xx_hal_rtc_ex.c **** 
 911:Drivers/STM32F4xx_HAL_Driver/Src/stm32f4xx_hal_rtc_ex.c ****   /* RTC WakeUpTimer Interrupt Configuration: EXTI configuration */
 912:Drivers/STM32F4xx_HAL_Driver/Src/stm32f4xx_hal_rtc_ex.c ****   __HAL_RTC_WAKEUPTIMER_EXTI_ENABLE_IT();
 1399              		.loc 1 912 0
 1400 0096 1D4B     		ldr	r3, .L109+8
 1401 0098 1A68     		ldr	r2, [r3]
 1402 009a 42F48002 		orr	r2, r2, #4194304
 1403 009e 1A60     		str	r2, [r3]
 913:Drivers/STM32F4xx_HAL_Driver/Src/stm32f4xx_hal_rtc_ex.c **** 
 914:Drivers/STM32F4xx_HAL_Driver/Src/stm32f4xx_hal_rtc_ex.c ****   EXTI->RTSR |= RTC_EXTI_LINE_WAKEUPTIMER_EVENT;
 1404              		.loc 1 914 0
 1405 00a0 9A68     		ldr	r2, [r3, #8]
 1406 00a2 42F48002 		orr	r2, r2, #4194304
 1407 00a6 9A60     		str	r2, [r3, #8]
 915:Drivers/STM32F4xx_HAL_Driver/Src/stm32f4xx_hal_rtc_ex.c ****   
 916:Drivers/STM32F4xx_HAL_Driver/Src/stm32f4xx_hal_rtc_ex.c ****   /* Clear RTC Wake Up timer Flag */
ARM GAS  C:\Users\svcgu\AppData\Local\Temp\ccZ0uYCg.s 			page 42


 917:Drivers/STM32F4xx_HAL_Driver/Src/stm32f4xx_hal_rtc_ex.c ****   __HAL_RTC_WAKEUPTIMER_CLEAR_FLAG(hrtc, RTC_FLAG_WUTF);
 1408              		.loc 1 917 0
 1409 00a8 0268     		ldr	r2, [r0]
 1410 00aa D368     		ldr	r3, [r2, #12]
 1411 00ac DBB2     		uxtb	r3, r3
 1412 00ae 63F49063 		orn	r3, r3, #1152
 1413 00b2 D360     		str	r3, [r2, #12]
 918:Drivers/STM32F4xx_HAL_Driver/Src/stm32f4xx_hal_rtc_ex.c ****   
 919:Drivers/STM32F4xx_HAL_Driver/Src/stm32f4xx_hal_rtc_ex.c ****   /* Configure the Interrupt in the RTC_CR register */
 920:Drivers/STM32F4xx_HAL_Driver/Src/stm32f4xx_hal_rtc_ex.c ****   __HAL_RTC_WAKEUPTIMER_ENABLE_IT(hrtc,RTC_IT_WUT);
 1414              		.loc 1 920 0
 1415 00b4 0268     		ldr	r2, [r0]
 1416 00b6 9368     		ldr	r3, [r2, #8]
 1417 00b8 43F48043 		orr	r3, r3, #16384
 1418 00bc 9360     		str	r3, [r2, #8]
 921:Drivers/STM32F4xx_HAL_Driver/Src/stm32f4xx_hal_rtc_ex.c **** 
 922:Drivers/STM32F4xx_HAL_Driver/Src/stm32f4xx_hal_rtc_ex.c ****   /* Enable the Wake-up Timer */
 923:Drivers/STM32F4xx_HAL_Driver/Src/stm32f4xx_hal_rtc_ex.c ****   __HAL_RTC_WAKEUPTIMER_ENABLE(hrtc);
 1419              		.loc 1 923 0
 1420 00be 0268     		ldr	r2, [r0]
 1421 00c0 9368     		ldr	r3, [r2, #8]
 1422 00c2 43F48063 		orr	r3, r3, #1024
 1423 00c6 9360     		str	r3, [r2, #8]
 924:Drivers/STM32F4xx_HAL_Driver/Src/stm32f4xx_hal_rtc_ex.c **** 
 925:Drivers/STM32F4xx_HAL_Driver/Src/stm32f4xx_hal_rtc_ex.c ****   /* Enable the write protection for RTC registers */
 926:Drivers/STM32F4xx_HAL_Driver/Src/stm32f4xx_hal_rtc_ex.c ****   __HAL_RTC_WRITEPROTECTION_ENABLE(hrtc);
 1424              		.loc 1 926 0
 1425 00c8 0368     		ldr	r3, [r0]
 1426 00ca FF22     		movs	r2, #255
 1427 00cc 5A62     		str	r2, [r3, #36]
 927:Drivers/STM32F4xx_HAL_Driver/Src/stm32f4xx_hal_rtc_ex.c **** 
 928:Drivers/STM32F4xx_HAL_Driver/Src/stm32f4xx_hal_rtc_ex.c ****   hrtc->State = HAL_RTC_STATE_READY;
 1428              		.loc 1 928 0
 1429 00ce 0123     		movs	r3, #1
 1430 00d0 4377     		strb	r3, [r0, #29]
 929:Drivers/STM32F4xx_HAL_Driver/Src/stm32f4xx_hal_rtc_ex.c **** 
 930:Drivers/STM32F4xx_HAL_Driver/Src/stm32f4xx_hal_rtc_ex.c ****   /* Process Unlocked */ 
 931:Drivers/STM32F4xx_HAL_Driver/Src/stm32f4xx_hal_rtc_ex.c ****   __HAL_UNLOCK(hrtc);
 1431              		.loc 1 931 0
 1432 00d2 0023     		movs	r3, #0
 1433 00d4 0377     		strb	r3, [r0, #28]
 932:Drivers/STM32F4xx_HAL_Driver/Src/stm32f4xx_hal_rtc_ex.c **** 
 933:Drivers/STM32F4xx_HAL_Driver/Src/stm32f4xx_hal_rtc_ex.c ****   return HAL_OK;
 1434              		.loc 1 933 0
 1435 00d6 1846     		mov	r0, r3
 1436              	.LVL109:
 1437 00d8 0FE0     		b	.L96
 1438              	.LVL110:
 1439              	.L107:
 868:Drivers/STM32F4xx_HAL_Driver/Src/stm32f4xx_hal_rtc_ex.c **** 
 1440              		.loc 1 868 0
 1441 00da FF23     		movs	r3, #255
 1442 00dc 6B62     		str	r3, [r5, #36]
 870:Drivers/STM32F4xx_HAL_Driver/Src/stm32f4xx_hal_rtc_ex.c **** 
 1443              		.loc 1 870 0
 1444 00de 0323     		movs	r3, #3
 1445 00e0 4377     		strb	r3, [r0, #29]
ARM GAS  C:\Users\svcgu\AppData\Local\Temp\ccZ0uYCg.s 			page 43


 873:Drivers/STM32F4xx_HAL_Driver/Src/stm32f4xx_hal_rtc_ex.c **** 
 1446              		.loc 1 873 0
 1447 00e2 0022     		movs	r2, #0
 1448              	.LVL111:
 1449 00e4 0277     		strb	r2, [r0, #28]
 875:Drivers/STM32F4xx_HAL_Driver/Src/stm32f4xx_hal_rtc_ex.c ****       }
 1450              		.loc 1 875 0
 1451 00e6 1846     		mov	r0, r3
 1452              	.LVL112:
 1453 00e8 07E0     		b	.L96
 1454              	.LVL113:
 1455              	.L108:
 890:Drivers/STM32F4xx_HAL_Driver/Src/stm32f4xx_hal_rtc_ex.c **** 
 1456              		.loc 1 890 0
 1457 00ea 0368     		ldr	r3, [r0]
 1458 00ec FF22     		movs	r2, #255
 1459              	.LVL114:
 1460 00ee 5A62     		str	r2, [r3, #36]
 892:Drivers/STM32F4xx_HAL_Driver/Src/stm32f4xx_hal_rtc_ex.c **** 
 1461              		.loc 1 892 0
 1462 00f0 0323     		movs	r3, #3
 1463 00f2 4377     		strb	r3, [r0, #29]
 895:Drivers/STM32F4xx_HAL_Driver/Src/stm32f4xx_hal_rtc_ex.c **** 
 1464              		.loc 1 895 0
 1465 00f4 0022     		movs	r2, #0
 1466 00f6 0277     		strb	r2, [r0, #28]
 897:Drivers/STM32F4xx_HAL_Driver/Src/stm32f4xx_hal_rtc_ex.c ****     }
 1467              		.loc 1 897 0
 1468 00f8 1846     		mov	r0, r3
 1469              	.LVL115:
 1470              	.L96:
 934:Drivers/STM32F4xx_HAL_Driver/Src/stm32f4xx_hal_rtc_ex.c **** }
 1471              		.loc 1 934 0
 1472 00fa 02B0     		add	sp, sp, #8
 1473              	.LCFI22:
 1474              		.cfi_def_cfa_offset 8
 1475              		@ sp needed
 1476 00fc 30BC     		pop	{r4, r5}
 1477              	.LCFI23:
 1478              		.cfi_restore 5
 1479              		.cfi_restore 4
 1480              		.cfi_def_cfa_offset 0
 1481 00fe 7047     		bx	lr
 1482              	.LVL116:
 1483              	.L102:
 851:Drivers/STM32F4xx_HAL_Driver/Src/stm32f4xx_hal_rtc_ex.c **** 
 1484              		.loc 1 851 0
 1485 0100 0220     		movs	r0, #2
 1486              	.LVL117:
 1487 0102 7047     		bx	lr
 1488              	.L110:
 1489              		.align	2
 1490              	.L109:
 1491 0104 00000000 		.word	SystemCoreClock
 1492 0108 D34D6210 		.word	274877907
 1493 010c 003C0140 		.word	1073822720
 1494              		.cfi_endproc
ARM GAS  C:\Users\svcgu\AppData\Local\Temp\ccZ0uYCg.s 			page 44


 1495              	.LFE139:
 1497              		.section	.text.HAL_RTCEx_DeactivateWakeUpTimer,"ax",%progbits
 1498              		.align	1
 1499              		.global	HAL_RTCEx_DeactivateWakeUpTimer
 1500              		.syntax unified
 1501              		.thumb
 1502              		.thumb_func
 1503              		.fpu fpv4-sp-d16
 1505              	HAL_RTCEx_DeactivateWakeUpTimer:
 1506              	.LFB140:
 935:Drivers/STM32F4xx_HAL_Driver/Src/stm32f4xx_hal_rtc_ex.c **** 
 936:Drivers/STM32F4xx_HAL_Driver/Src/stm32f4xx_hal_rtc_ex.c **** /**
 937:Drivers/STM32F4xx_HAL_Driver/Src/stm32f4xx_hal_rtc_ex.c ****   * @brief  Deactivates wake up timer counter.
 938:Drivers/STM32F4xx_HAL_Driver/Src/stm32f4xx_hal_rtc_ex.c ****   * @param  hrtc pointer to a RTC_HandleTypeDef structure that contains
 939:Drivers/STM32F4xx_HAL_Driver/Src/stm32f4xx_hal_rtc_ex.c ****   *                the configuration information for RTC. 
 940:Drivers/STM32F4xx_HAL_Driver/Src/stm32f4xx_hal_rtc_ex.c ****   * @retval HAL status
 941:Drivers/STM32F4xx_HAL_Driver/Src/stm32f4xx_hal_rtc_ex.c ****   */
 942:Drivers/STM32F4xx_HAL_Driver/Src/stm32f4xx_hal_rtc_ex.c **** uint32_t HAL_RTCEx_DeactivateWakeUpTimer(RTC_HandleTypeDef *hrtc)
 943:Drivers/STM32F4xx_HAL_Driver/Src/stm32f4xx_hal_rtc_ex.c **** {
 1507              		.loc 1 943 0
 1508              		.cfi_startproc
 1509              		@ args = 0, pretend = 0, frame = 0
 1510              		@ frame_needed = 0, uses_anonymous_args = 0
 1511              	.LVL118:
 1512 0000 38B5     		push	{r3, r4, r5, lr}
 1513              	.LCFI24:
 1514              		.cfi_def_cfa_offset 16
 1515              		.cfi_offset 3, -16
 1516              		.cfi_offset 4, -12
 1517              		.cfi_offset 5, -8
 1518              		.cfi_offset 14, -4
 1519              	.LVL119:
 944:Drivers/STM32F4xx_HAL_Driver/Src/stm32f4xx_hal_rtc_ex.c ****   uint32_t tickstart = 0U;
 945:Drivers/STM32F4xx_HAL_Driver/Src/stm32f4xx_hal_rtc_ex.c ****   
 946:Drivers/STM32F4xx_HAL_Driver/Src/stm32f4xx_hal_rtc_ex.c ****   /* Process Locked */ 
 947:Drivers/STM32F4xx_HAL_Driver/Src/stm32f4xx_hal_rtc_ex.c ****   __HAL_LOCK(hrtc);
 1520              		.loc 1 947 0
 1521 0002 037F     		ldrb	r3, [r0, #28]	@ zero_extendqisi2
 1522 0004 012B     		cmp	r3, #1
 1523 0006 01D1     		bne	.L117
 1524 0008 0220     		movs	r0, #2
 1525              	.LVL120:
 948:Drivers/STM32F4xx_HAL_Driver/Src/stm32f4xx_hal_rtc_ex.c ****   
 949:Drivers/STM32F4xx_HAL_Driver/Src/stm32f4xx_hal_rtc_ex.c ****   hrtc->State = HAL_RTC_STATE_BUSY;
 950:Drivers/STM32F4xx_HAL_Driver/Src/stm32f4xx_hal_rtc_ex.c ****   
 951:Drivers/STM32F4xx_HAL_Driver/Src/stm32f4xx_hal_rtc_ex.c ****   /* Disable the write protection for RTC registers */
 952:Drivers/STM32F4xx_HAL_Driver/Src/stm32f4xx_hal_rtc_ex.c ****   __HAL_RTC_WRITEPROTECTION_DISABLE(hrtc);
 953:Drivers/STM32F4xx_HAL_Driver/Src/stm32f4xx_hal_rtc_ex.c ****   
 954:Drivers/STM32F4xx_HAL_Driver/Src/stm32f4xx_hal_rtc_ex.c ****   /* Disable the Wake-up Timer */
 955:Drivers/STM32F4xx_HAL_Driver/Src/stm32f4xx_hal_rtc_ex.c ****   __HAL_RTC_WAKEUPTIMER_DISABLE(hrtc);
 956:Drivers/STM32F4xx_HAL_Driver/Src/stm32f4xx_hal_rtc_ex.c ****   
 957:Drivers/STM32F4xx_HAL_Driver/Src/stm32f4xx_hal_rtc_ex.c ****   /* In case of interrupt mode is used, the interrupt source must disabled */ 
 958:Drivers/STM32F4xx_HAL_Driver/Src/stm32f4xx_hal_rtc_ex.c ****   __HAL_RTC_WAKEUPTIMER_DISABLE_IT(hrtc,RTC_IT_WUT);
 959:Drivers/STM32F4xx_HAL_Driver/Src/stm32f4xx_hal_rtc_ex.c **** 
 960:Drivers/STM32F4xx_HAL_Driver/Src/stm32f4xx_hal_rtc_ex.c ****   /* Get tick */
 961:Drivers/STM32F4xx_HAL_Driver/Src/stm32f4xx_hal_rtc_ex.c ****   tickstart = HAL_GetTick();
 962:Drivers/STM32F4xx_HAL_Driver/Src/stm32f4xx_hal_rtc_ex.c **** 
ARM GAS  C:\Users\svcgu\AppData\Local\Temp\ccZ0uYCg.s 			page 45


 963:Drivers/STM32F4xx_HAL_Driver/Src/stm32f4xx_hal_rtc_ex.c ****   /* Wait till RTC WUTWF flag is set and if Time out is reached exit */
 964:Drivers/STM32F4xx_HAL_Driver/Src/stm32f4xx_hal_rtc_ex.c ****   while(__HAL_RTC_WAKEUPTIMER_GET_FLAG(hrtc, RTC_FLAG_WUTWF) == RESET)
 965:Drivers/STM32F4xx_HAL_Driver/Src/stm32f4xx_hal_rtc_ex.c ****   {
 966:Drivers/STM32F4xx_HAL_Driver/Src/stm32f4xx_hal_rtc_ex.c ****     if((HAL_GetTick() - tickstart ) > RTC_TIMEOUT_VALUE)
 967:Drivers/STM32F4xx_HAL_Driver/Src/stm32f4xx_hal_rtc_ex.c ****     {
 968:Drivers/STM32F4xx_HAL_Driver/Src/stm32f4xx_hal_rtc_ex.c ****       /* Enable the write protection for RTC registers */
 969:Drivers/STM32F4xx_HAL_Driver/Src/stm32f4xx_hal_rtc_ex.c ****       __HAL_RTC_WRITEPROTECTION_ENABLE(hrtc);
 970:Drivers/STM32F4xx_HAL_Driver/Src/stm32f4xx_hal_rtc_ex.c ****       
 971:Drivers/STM32F4xx_HAL_Driver/Src/stm32f4xx_hal_rtc_ex.c ****       hrtc->State = HAL_RTC_STATE_TIMEOUT; 
 972:Drivers/STM32F4xx_HAL_Driver/Src/stm32f4xx_hal_rtc_ex.c ****       
 973:Drivers/STM32F4xx_HAL_Driver/Src/stm32f4xx_hal_rtc_ex.c ****       /* Process Unlocked */ 
 974:Drivers/STM32F4xx_HAL_Driver/Src/stm32f4xx_hal_rtc_ex.c ****       __HAL_UNLOCK(hrtc);
 975:Drivers/STM32F4xx_HAL_Driver/Src/stm32f4xx_hal_rtc_ex.c ****       
 976:Drivers/STM32F4xx_HAL_Driver/Src/stm32f4xx_hal_rtc_ex.c ****       return HAL_TIMEOUT;
 977:Drivers/STM32F4xx_HAL_Driver/Src/stm32f4xx_hal_rtc_ex.c ****     }   
 978:Drivers/STM32F4xx_HAL_Driver/Src/stm32f4xx_hal_rtc_ex.c ****   }
 979:Drivers/STM32F4xx_HAL_Driver/Src/stm32f4xx_hal_rtc_ex.c ****   
 980:Drivers/STM32F4xx_HAL_Driver/Src/stm32f4xx_hal_rtc_ex.c ****   /* Enable the write protection for RTC registers */
 981:Drivers/STM32F4xx_HAL_Driver/Src/stm32f4xx_hal_rtc_ex.c ****   __HAL_RTC_WRITEPROTECTION_ENABLE(hrtc);
 982:Drivers/STM32F4xx_HAL_Driver/Src/stm32f4xx_hal_rtc_ex.c ****   
 983:Drivers/STM32F4xx_HAL_Driver/Src/stm32f4xx_hal_rtc_ex.c ****   hrtc->State = HAL_RTC_STATE_READY;   
 984:Drivers/STM32F4xx_HAL_Driver/Src/stm32f4xx_hal_rtc_ex.c ****   
 985:Drivers/STM32F4xx_HAL_Driver/Src/stm32f4xx_hal_rtc_ex.c ****   /* Process Unlocked */ 
 986:Drivers/STM32F4xx_HAL_Driver/Src/stm32f4xx_hal_rtc_ex.c ****   __HAL_UNLOCK(hrtc);
 987:Drivers/STM32F4xx_HAL_Driver/Src/stm32f4xx_hal_rtc_ex.c ****   
 988:Drivers/STM32F4xx_HAL_Driver/Src/stm32f4xx_hal_rtc_ex.c ****   return HAL_OK;
 989:Drivers/STM32F4xx_HAL_Driver/Src/stm32f4xx_hal_rtc_ex.c **** }
 1526              		.loc 1 989 0
 1527 000a 38BD     		pop	{r3, r4, r5, pc}
 1528              	.LVL121:
 1529              	.L117:
 1530 000c 0446     		mov	r4, r0
 947:Drivers/STM32F4xx_HAL_Driver/Src/stm32f4xx_hal_rtc_ex.c ****   
 1531              		.loc 1 947 0 discriminator 2
 1532 000e 0123     		movs	r3, #1
 1533 0010 0377     		strb	r3, [r0, #28]
 949:Drivers/STM32F4xx_HAL_Driver/Src/stm32f4xx_hal_rtc_ex.c ****   
 1534              		.loc 1 949 0 discriminator 2
 1535 0012 0223     		movs	r3, #2
 1536 0014 4377     		strb	r3, [r0, #29]
 952:Drivers/STM32F4xx_HAL_Driver/Src/stm32f4xx_hal_rtc_ex.c ****   
 1537              		.loc 1 952 0 discriminator 2
 1538 0016 0368     		ldr	r3, [r0]
 1539 0018 CA22     		movs	r2, #202
 1540 001a 5A62     		str	r2, [r3, #36]
 1541 001c 0368     		ldr	r3, [r0]
 1542 001e 5322     		movs	r2, #83
 1543 0020 5A62     		str	r2, [r3, #36]
 955:Drivers/STM32F4xx_HAL_Driver/Src/stm32f4xx_hal_rtc_ex.c ****   
 1544              		.loc 1 955 0 discriminator 2
 1545 0022 0268     		ldr	r2, [r0]
 1546 0024 9368     		ldr	r3, [r2, #8]
 1547 0026 23F48063 		bic	r3, r3, #1024
 1548 002a 9360     		str	r3, [r2, #8]
 958:Drivers/STM32F4xx_HAL_Driver/Src/stm32f4xx_hal_rtc_ex.c **** 
 1549              		.loc 1 958 0 discriminator 2
 1550 002c 0268     		ldr	r2, [r0]
ARM GAS  C:\Users\svcgu\AppData\Local\Temp\ccZ0uYCg.s 			page 46


 1551 002e 9368     		ldr	r3, [r2, #8]
 1552 0030 23F48043 		bic	r3, r3, #16384
 1553 0034 9360     		str	r3, [r2, #8]
 961:Drivers/STM32F4xx_HAL_Driver/Src/stm32f4xx_hal_rtc_ex.c **** 
 1554              		.loc 1 961 0 discriminator 2
 1555 0036 FFF7FEFF 		bl	HAL_GetTick
 1556              	.LVL122:
 1557 003a 0546     		mov	r5, r0
 1558              	.LVL123:
 1559              	.L113:
 964:Drivers/STM32F4xx_HAL_Driver/Src/stm32f4xx_hal_rtc_ex.c ****   {
 1560              		.loc 1 964 0
 1561 003c 2368     		ldr	r3, [r4]
 1562 003e DA68     		ldr	r2, [r3, #12]
 1563 0040 12F0040F 		tst	r2, #4
 1564 0044 0DD1     		bne	.L118
 966:Drivers/STM32F4xx_HAL_Driver/Src/stm32f4xx_hal_rtc_ex.c ****     {
 1565              		.loc 1 966 0
 1566 0046 FFF7FEFF 		bl	HAL_GetTick
 1567              	.LVL124:
 1568 004a 401B     		subs	r0, r0, r5
 1569 004c B0F57A7F 		cmp	r0, #1000
 1570 0050 F4D9     		bls	.L113
 969:Drivers/STM32F4xx_HAL_Driver/Src/stm32f4xx_hal_rtc_ex.c ****       
 1571              		.loc 1 969 0
 1572 0052 2368     		ldr	r3, [r4]
 1573 0054 FF22     		movs	r2, #255
 1574 0056 5A62     		str	r2, [r3, #36]
 971:Drivers/STM32F4xx_HAL_Driver/Src/stm32f4xx_hal_rtc_ex.c ****       
 1575              		.loc 1 971 0
 1576 0058 0320     		movs	r0, #3
 1577 005a 6077     		strb	r0, [r4, #29]
 974:Drivers/STM32F4xx_HAL_Driver/Src/stm32f4xx_hal_rtc_ex.c ****       
 1578              		.loc 1 974 0
 1579 005c 0023     		movs	r3, #0
 1580 005e 2377     		strb	r3, [r4, #28]
 976:Drivers/STM32F4xx_HAL_Driver/Src/stm32f4xx_hal_rtc_ex.c ****     }   
 1581              		.loc 1 976 0
 1582 0060 38BD     		pop	{r3, r4, r5, pc}
 1583              	.LVL125:
 1584              	.L118:
 981:Drivers/STM32F4xx_HAL_Driver/Src/stm32f4xx_hal_rtc_ex.c ****   
 1585              		.loc 1 981 0
 1586 0062 FF22     		movs	r2, #255
 1587 0064 5A62     		str	r2, [r3, #36]
 983:Drivers/STM32F4xx_HAL_Driver/Src/stm32f4xx_hal_rtc_ex.c ****   
 1588              		.loc 1 983 0
 1589 0066 0123     		movs	r3, #1
 1590 0068 6377     		strb	r3, [r4, #29]
 986:Drivers/STM32F4xx_HAL_Driver/Src/stm32f4xx_hal_rtc_ex.c ****   
 1591              		.loc 1 986 0
 1592 006a 0020     		movs	r0, #0
 1593 006c 2077     		strb	r0, [r4, #28]
 988:Drivers/STM32F4xx_HAL_Driver/Src/stm32f4xx_hal_rtc_ex.c **** }
 1594              		.loc 1 988 0
 1595 006e 38BD     		pop	{r3, r4, r5, pc}
 1596              		.cfi_endproc
ARM GAS  C:\Users\svcgu\AppData\Local\Temp\ccZ0uYCg.s 			page 47


 1597              	.LFE140:
 1599              		.section	.text.HAL_RTCEx_GetWakeUpTimer,"ax",%progbits
 1600              		.align	1
 1601              		.global	HAL_RTCEx_GetWakeUpTimer
 1602              		.syntax unified
 1603              		.thumb
 1604              		.thumb_func
 1605              		.fpu fpv4-sp-d16
 1607              	HAL_RTCEx_GetWakeUpTimer:
 1608              	.LFB141:
 990:Drivers/STM32F4xx_HAL_Driver/Src/stm32f4xx_hal_rtc_ex.c **** 
 991:Drivers/STM32F4xx_HAL_Driver/Src/stm32f4xx_hal_rtc_ex.c **** /**
 992:Drivers/STM32F4xx_HAL_Driver/Src/stm32f4xx_hal_rtc_ex.c ****   * @brief  Gets wake up timer counter.
 993:Drivers/STM32F4xx_HAL_Driver/Src/stm32f4xx_hal_rtc_ex.c ****   * @param  hrtc pointer to a RTC_HandleTypeDef structure that contains
 994:Drivers/STM32F4xx_HAL_Driver/Src/stm32f4xx_hal_rtc_ex.c ****   *                the configuration information for RTC. 
 995:Drivers/STM32F4xx_HAL_Driver/Src/stm32f4xx_hal_rtc_ex.c ****   * @retval Counter value
 996:Drivers/STM32F4xx_HAL_Driver/Src/stm32f4xx_hal_rtc_ex.c ****   */
 997:Drivers/STM32F4xx_HAL_Driver/Src/stm32f4xx_hal_rtc_ex.c **** uint32_t HAL_RTCEx_GetWakeUpTimer(RTC_HandleTypeDef *hrtc)
 998:Drivers/STM32F4xx_HAL_Driver/Src/stm32f4xx_hal_rtc_ex.c **** {
 1609              		.loc 1 998 0
 1610              		.cfi_startproc
 1611              		@ args = 0, pretend = 0, frame = 0
 1612              		@ frame_needed = 0, uses_anonymous_args = 0
 1613              		@ link register save eliminated.
 1614              	.LVL126:
 999:Drivers/STM32F4xx_HAL_Driver/Src/stm32f4xx_hal_rtc_ex.c ****   /* Get the counter value */
1000:Drivers/STM32F4xx_HAL_Driver/Src/stm32f4xx_hal_rtc_ex.c ****   return ((uint32_t)(hrtc->Instance->WUTR & RTC_WUTR_WUT)); 
 1615              		.loc 1 1000 0
 1616 0000 0368     		ldr	r3, [r0]
 1617 0002 5869     		ldr	r0, [r3, #20]
 1618              	.LVL127:
1001:Drivers/STM32F4xx_HAL_Driver/Src/stm32f4xx_hal_rtc_ex.c **** }
 1619              		.loc 1 1001 0
 1620 0004 80B2     		uxth	r0, r0
 1621 0006 7047     		bx	lr
 1622              		.cfi_endproc
 1623              	.LFE141:
 1625              		.section	.text.HAL_RTCEx_WakeUpTimerEventCallback,"ax",%progbits
 1626              		.align	1
 1627              		.weak	HAL_RTCEx_WakeUpTimerEventCallback
 1628              		.syntax unified
 1629              		.thumb
 1630              		.thumb_func
 1631              		.fpu fpv4-sp-d16
 1633              	HAL_RTCEx_WakeUpTimerEventCallback:
 1634              	.LFB143:
1002:Drivers/STM32F4xx_HAL_Driver/Src/stm32f4xx_hal_rtc_ex.c **** 
1003:Drivers/STM32F4xx_HAL_Driver/Src/stm32f4xx_hal_rtc_ex.c **** /**
1004:Drivers/STM32F4xx_HAL_Driver/Src/stm32f4xx_hal_rtc_ex.c ****   * @brief  This function handles Wake Up Timer interrupt request.
1005:Drivers/STM32F4xx_HAL_Driver/Src/stm32f4xx_hal_rtc_ex.c ****   * @param  hrtc pointer to a RTC_HandleTypeDef structure that contains
1006:Drivers/STM32F4xx_HAL_Driver/Src/stm32f4xx_hal_rtc_ex.c ****   *                the configuration information for RTC.
1007:Drivers/STM32F4xx_HAL_Driver/Src/stm32f4xx_hal_rtc_ex.c ****   * @retval None
1008:Drivers/STM32F4xx_HAL_Driver/Src/stm32f4xx_hal_rtc_ex.c ****   */
1009:Drivers/STM32F4xx_HAL_Driver/Src/stm32f4xx_hal_rtc_ex.c **** void HAL_RTCEx_WakeUpTimerIRQHandler(RTC_HandleTypeDef *hrtc)
1010:Drivers/STM32F4xx_HAL_Driver/Src/stm32f4xx_hal_rtc_ex.c **** {  
1011:Drivers/STM32F4xx_HAL_Driver/Src/stm32f4xx_hal_rtc_ex.c ****   if(__HAL_RTC_WAKEUPTIMER_GET_IT(hrtc, RTC_IT_WUT))
1012:Drivers/STM32F4xx_HAL_Driver/Src/stm32f4xx_hal_rtc_ex.c ****   {
ARM GAS  C:\Users\svcgu\AppData\Local\Temp\ccZ0uYCg.s 			page 48


1013:Drivers/STM32F4xx_HAL_Driver/Src/stm32f4xx_hal_rtc_ex.c ****     /* Get the status of the Interrupt */
1014:Drivers/STM32F4xx_HAL_Driver/Src/stm32f4xx_hal_rtc_ex.c ****     if((uint32_t)(hrtc->Instance->CR & RTC_IT_WUT) != (uint32_t)RESET)
1015:Drivers/STM32F4xx_HAL_Driver/Src/stm32f4xx_hal_rtc_ex.c ****     {
1016:Drivers/STM32F4xx_HAL_Driver/Src/stm32f4xx_hal_rtc_ex.c ****       /* WAKEUPTIMER callback */ 
1017:Drivers/STM32F4xx_HAL_Driver/Src/stm32f4xx_hal_rtc_ex.c ****       HAL_RTCEx_WakeUpTimerEventCallback(hrtc);
1018:Drivers/STM32F4xx_HAL_Driver/Src/stm32f4xx_hal_rtc_ex.c ****       
1019:Drivers/STM32F4xx_HAL_Driver/Src/stm32f4xx_hal_rtc_ex.c ****       /* Clear the WAKEUPTIMER interrupt pending bit */
1020:Drivers/STM32F4xx_HAL_Driver/Src/stm32f4xx_hal_rtc_ex.c ****       __HAL_RTC_WAKEUPTIMER_CLEAR_FLAG(hrtc, RTC_FLAG_WUTF);
1021:Drivers/STM32F4xx_HAL_Driver/Src/stm32f4xx_hal_rtc_ex.c ****     }
1022:Drivers/STM32F4xx_HAL_Driver/Src/stm32f4xx_hal_rtc_ex.c ****   }
1023:Drivers/STM32F4xx_HAL_Driver/Src/stm32f4xx_hal_rtc_ex.c ****   
1024:Drivers/STM32F4xx_HAL_Driver/Src/stm32f4xx_hal_rtc_ex.c ****   /* Clear the EXTI's line Flag for RTC WakeUpTimer */
1025:Drivers/STM32F4xx_HAL_Driver/Src/stm32f4xx_hal_rtc_ex.c ****   __HAL_RTC_WAKEUPTIMER_EXTI_CLEAR_FLAG();
1026:Drivers/STM32F4xx_HAL_Driver/Src/stm32f4xx_hal_rtc_ex.c **** 
1027:Drivers/STM32F4xx_HAL_Driver/Src/stm32f4xx_hal_rtc_ex.c ****   /* Change RTC state */
1028:Drivers/STM32F4xx_HAL_Driver/Src/stm32f4xx_hal_rtc_ex.c ****   hrtc->State = HAL_RTC_STATE_READY; 
1029:Drivers/STM32F4xx_HAL_Driver/Src/stm32f4xx_hal_rtc_ex.c **** }
1030:Drivers/STM32F4xx_HAL_Driver/Src/stm32f4xx_hal_rtc_ex.c **** 
1031:Drivers/STM32F4xx_HAL_Driver/Src/stm32f4xx_hal_rtc_ex.c **** /**
1032:Drivers/STM32F4xx_HAL_Driver/Src/stm32f4xx_hal_rtc_ex.c ****   * @brief  Wake Up Timer callback.
1033:Drivers/STM32F4xx_HAL_Driver/Src/stm32f4xx_hal_rtc_ex.c ****   * @param  hrtc pointer to a RTC_HandleTypeDef structure that contains
1034:Drivers/STM32F4xx_HAL_Driver/Src/stm32f4xx_hal_rtc_ex.c ****   *                the configuration information for RTC.
1035:Drivers/STM32F4xx_HAL_Driver/Src/stm32f4xx_hal_rtc_ex.c ****   * @retval None
1036:Drivers/STM32F4xx_HAL_Driver/Src/stm32f4xx_hal_rtc_ex.c ****   */
1037:Drivers/STM32F4xx_HAL_Driver/Src/stm32f4xx_hal_rtc_ex.c **** __weak void HAL_RTCEx_WakeUpTimerEventCallback(RTC_HandleTypeDef *hrtc)
1038:Drivers/STM32F4xx_HAL_Driver/Src/stm32f4xx_hal_rtc_ex.c **** {
 1635              		.loc 1 1038 0
 1636              		.cfi_startproc
 1637              		@ args = 0, pretend = 0, frame = 0
 1638              		@ frame_needed = 0, uses_anonymous_args = 0
 1639              		@ link register save eliminated.
 1640              	.LVL128:
 1641 0000 7047     		bx	lr
 1642              		.cfi_endproc
 1643              	.LFE143:
 1645              		.section	.text.HAL_RTCEx_WakeUpTimerIRQHandler,"ax",%progbits
 1646              		.align	1
 1647              		.global	HAL_RTCEx_WakeUpTimerIRQHandler
 1648              		.syntax unified
 1649              		.thumb
 1650              		.thumb_func
 1651              		.fpu fpv4-sp-d16
 1653              	HAL_RTCEx_WakeUpTimerIRQHandler:
 1654              	.LFB142:
1010:Drivers/STM32F4xx_HAL_Driver/Src/stm32f4xx_hal_rtc_ex.c ****   if(__HAL_RTC_WAKEUPTIMER_GET_IT(hrtc, RTC_IT_WUT))
 1655              		.loc 1 1010 0
 1656              		.cfi_startproc
 1657              		@ args = 0, pretend = 0, frame = 0
 1658              		@ frame_needed = 0, uses_anonymous_args = 0
 1659              	.LVL129:
1010:Drivers/STM32F4xx_HAL_Driver/Src/stm32f4xx_hal_rtc_ex.c ****   if(__HAL_RTC_WAKEUPTIMER_GET_IT(hrtc, RTC_IT_WUT))
 1660              		.loc 1 1010 0
 1661 0000 10B5     		push	{r4, lr}
 1662              	.LCFI25:
 1663              		.cfi_def_cfa_offset 8
 1664              		.cfi_offset 4, -8
 1665              		.cfi_offset 14, -4
ARM GAS  C:\Users\svcgu\AppData\Local\Temp\ccZ0uYCg.s 			page 49


 1666 0002 0446     		mov	r4, r0
1011:Drivers/STM32F4xx_HAL_Driver/Src/stm32f4xx_hal_rtc_ex.c ****   {
 1667              		.loc 1 1011 0
 1668 0004 0368     		ldr	r3, [r0]
 1669 0006 DA68     		ldr	r2, [r3, #12]
 1670 0008 12F4806F 		tst	r2, #1024
 1671 000c 03D0     		beq	.L122
1014:Drivers/STM32F4xx_HAL_Driver/Src/stm32f4xx_hal_rtc_ex.c ****     {
 1672              		.loc 1 1014 0
 1673 000e 9B68     		ldr	r3, [r3, #8]
 1674 0010 13F4804F 		tst	r3, #16384
 1675 0014 06D1     		bne	.L124
 1676              	.LVL130:
 1677              	.L122:
1025:Drivers/STM32F4xx_HAL_Driver/Src/stm32f4xx_hal_rtc_ex.c **** 
 1678              		.loc 1 1025 0
 1679 0016 4FF48002 		mov	r2, #4194304
 1680 001a 074B     		ldr	r3, .L125
 1681 001c 5A61     		str	r2, [r3, #20]
1028:Drivers/STM32F4xx_HAL_Driver/Src/stm32f4xx_hal_rtc_ex.c **** }
 1682              		.loc 1 1028 0
 1683 001e 0123     		movs	r3, #1
 1684 0020 6377     		strb	r3, [r4, #29]
 1685 0022 10BD     		pop	{r4, pc}
 1686              	.LVL131:
 1687              	.L124:
1017:Drivers/STM32F4xx_HAL_Driver/Src/stm32f4xx_hal_rtc_ex.c ****       
 1688              		.loc 1 1017 0
 1689 0024 FFF7FEFF 		bl	HAL_RTCEx_WakeUpTimerEventCallback
 1690              	.LVL132:
1020:Drivers/STM32F4xx_HAL_Driver/Src/stm32f4xx_hal_rtc_ex.c ****     }
 1691              		.loc 1 1020 0
 1692 0028 2268     		ldr	r2, [r4]
 1693 002a D368     		ldr	r3, [r2, #12]
 1694 002c DBB2     		uxtb	r3, r3
 1695 002e 63F49063 		orn	r3, r3, #1152
 1696 0032 D360     		str	r3, [r2, #12]
 1697 0034 EFE7     		b	.L122
 1698              	.L126:
 1699 0036 00BF     		.align	2
 1700              	.L125:
 1701 0038 003C0140 		.word	1073822720
 1702              		.cfi_endproc
 1703              	.LFE142:
 1705              		.section	.text.HAL_RTCEx_PollForWakeUpTimerEvent,"ax",%progbits
 1706              		.align	1
 1707              		.global	HAL_RTCEx_PollForWakeUpTimerEvent
 1708              		.syntax unified
 1709              		.thumb
 1710              		.thumb_func
 1711              		.fpu fpv4-sp-d16
 1713              	HAL_RTCEx_PollForWakeUpTimerEvent:
 1714              	.LFB144:
1039:Drivers/STM32F4xx_HAL_Driver/Src/stm32f4xx_hal_rtc_ex.c ****   /* Prevent unused argument(s) compilation warning */
1040:Drivers/STM32F4xx_HAL_Driver/Src/stm32f4xx_hal_rtc_ex.c ****   UNUSED(hrtc);
1041:Drivers/STM32F4xx_HAL_Driver/Src/stm32f4xx_hal_rtc_ex.c ****   /* NOTE : This function Should not be modified, when the callback is needed,
1042:Drivers/STM32F4xx_HAL_Driver/Src/stm32f4xx_hal_rtc_ex.c ****             the HAL_RTC_WakeUpTimerEventCallback could be implemented in the user file
ARM GAS  C:\Users\svcgu\AppData\Local\Temp\ccZ0uYCg.s 			page 50


1043:Drivers/STM32F4xx_HAL_Driver/Src/stm32f4xx_hal_rtc_ex.c ****    */
1044:Drivers/STM32F4xx_HAL_Driver/Src/stm32f4xx_hal_rtc_ex.c **** }
1045:Drivers/STM32F4xx_HAL_Driver/Src/stm32f4xx_hal_rtc_ex.c **** 
1046:Drivers/STM32F4xx_HAL_Driver/Src/stm32f4xx_hal_rtc_ex.c **** /**
1047:Drivers/STM32F4xx_HAL_Driver/Src/stm32f4xx_hal_rtc_ex.c ****   * @brief  This function handles Wake Up Timer Polling.
1048:Drivers/STM32F4xx_HAL_Driver/Src/stm32f4xx_hal_rtc_ex.c ****   * @param  hrtc pointer to a RTC_HandleTypeDef structure that contains
1049:Drivers/STM32F4xx_HAL_Driver/Src/stm32f4xx_hal_rtc_ex.c ****   *                the configuration information for RTC.
1050:Drivers/STM32F4xx_HAL_Driver/Src/stm32f4xx_hal_rtc_ex.c ****   * @param  Timeout Timeout duration
1051:Drivers/STM32F4xx_HAL_Driver/Src/stm32f4xx_hal_rtc_ex.c ****   * @retval HAL status
1052:Drivers/STM32F4xx_HAL_Driver/Src/stm32f4xx_hal_rtc_ex.c ****   */
1053:Drivers/STM32F4xx_HAL_Driver/Src/stm32f4xx_hal_rtc_ex.c **** HAL_StatusTypeDef HAL_RTCEx_PollForWakeUpTimerEvent(RTC_HandleTypeDef *hrtc, uint32_t Timeout)
1054:Drivers/STM32F4xx_HAL_Driver/Src/stm32f4xx_hal_rtc_ex.c **** {  
 1715              		.loc 1 1054 0
 1716              		.cfi_startproc
 1717              		@ args = 0, pretend = 0, frame = 0
 1718              		@ frame_needed = 0, uses_anonymous_args = 0
 1719              	.LVL133:
 1720 0000 70B5     		push	{r4, r5, r6, lr}
 1721              	.LCFI26:
 1722              		.cfi_def_cfa_offset 16
 1723              		.cfi_offset 4, -16
 1724              		.cfi_offset 5, -12
 1725              		.cfi_offset 6, -8
 1726              		.cfi_offset 14, -4
 1727 0002 0446     		mov	r4, r0
 1728 0004 0D46     		mov	r5, r1
 1729              	.LVL134:
1055:Drivers/STM32F4xx_HAL_Driver/Src/stm32f4xx_hal_rtc_ex.c ****   uint32_t tickstart = 0U; 
1056:Drivers/STM32F4xx_HAL_Driver/Src/stm32f4xx_hal_rtc_ex.c **** 
1057:Drivers/STM32F4xx_HAL_Driver/Src/stm32f4xx_hal_rtc_ex.c ****   /* Get tick */
1058:Drivers/STM32F4xx_HAL_Driver/Src/stm32f4xx_hal_rtc_ex.c ****   tickstart = HAL_GetTick();
 1730              		.loc 1 1058 0
 1731 0006 FFF7FEFF 		bl	HAL_GetTick
 1732              	.LVL135:
 1733 000a 0646     		mov	r6, r0
 1734              	.LVL136:
 1735              	.L129:
1059:Drivers/STM32F4xx_HAL_Driver/Src/stm32f4xx_hal_rtc_ex.c **** 
1060:Drivers/STM32F4xx_HAL_Driver/Src/stm32f4xx_hal_rtc_ex.c ****   while(__HAL_RTC_WAKEUPTIMER_GET_FLAG(hrtc, RTC_FLAG_WUTF) == RESET)
 1736              		.loc 1 1060 0
 1737 000c 2368     		ldr	r3, [r4]
 1738 000e DA68     		ldr	r2, [r3, #12]
 1739 0010 12F4806F 		tst	r2, #1024
 1740 0014 0BD1     		bne	.L134
1061:Drivers/STM32F4xx_HAL_Driver/Src/stm32f4xx_hal_rtc_ex.c ****   {
1062:Drivers/STM32F4xx_HAL_Driver/Src/stm32f4xx_hal_rtc_ex.c ****     if(Timeout != HAL_MAX_DELAY)
 1741              		.loc 1 1062 0
 1742 0016 B5F1FF3F 		cmp	r5, #-1
 1743 001a F7D0     		beq	.L129
1063:Drivers/STM32F4xx_HAL_Driver/Src/stm32f4xx_hal_rtc_ex.c ****     {
1064:Drivers/STM32F4xx_HAL_Driver/Src/stm32f4xx_hal_rtc_ex.c ****       if((Timeout == 0U)||((HAL_GetTick() - tickstart ) > Timeout))
 1744              		.loc 1 1064 0
 1745 001c 25B1     		cbz	r5, .L130
 1746              		.loc 1 1064 0 is_stmt 0 discriminator 1
 1747 001e FFF7FEFF 		bl	HAL_GetTick
 1748              	.LVL137:
 1749 0022 801B     		subs	r0, r0, r6
ARM GAS  C:\Users\svcgu\AppData\Local\Temp\ccZ0uYCg.s 			page 51


 1750 0024 8542     		cmp	r5, r0
 1751 0026 F1D2     		bcs	.L129
 1752              	.L130:
1065:Drivers/STM32F4xx_HAL_Driver/Src/stm32f4xx_hal_rtc_ex.c ****       {
1066:Drivers/STM32F4xx_HAL_Driver/Src/stm32f4xx_hal_rtc_ex.c ****         hrtc->State = HAL_RTC_STATE_TIMEOUT;
 1753              		.loc 1 1066 0 is_stmt 1
 1754 0028 0320     		movs	r0, #3
 1755 002a 6077     		strb	r0, [r4, #29]
1067:Drivers/STM32F4xx_HAL_Driver/Src/stm32f4xx_hal_rtc_ex.c ****       
1068:Drivers/STM32F4xx_HAL_Driver/Src/stm32f4xx_hal_rtc_ex.c ****         return HAL_TIMEOUT;
 1756              		.loc 1 1068 0
 1757 002c 70BD     		pop	{r4, r5, r6, pc}
 1758              	.LVL138:
 1759              	.L134:
1069:Drivers/STM32F4xx_HAL_Driver/Src/stm32f4xx_hal_rtc_ex.c ****       }
1070:Drivers/STM32F4xx_HAL_Driver/Src/stm32f4xx_hal_rtc_ex.c ****     }
1071:Drivers/STM32F4xx_HAL_Driver/Src/stm32f4xx_hal_rtc_ex.c ****   }
1072:Drivers/STM32F4xx_HAL_Driver/Src/stm32f4xx_hal_rtc_ex.c ****   
1073:Drivers/STM32F4xx_HAL_Driver/Src/stm32f4xx_hal_rtc_ex.c ****   /* Clear the WAKEUPTIMER Flag */
1074:Drivers/STM32F4xx_HAL_Driver/Src/stm32f4xx_hal_rtc_ex.c ****   __HAL_RTC_WAKEUPTIMER_CLEAR_FLAG(hrtc, RTC_FLAG_WUTF);
 1760              		.loc 1 1074 0
 1761 002e DA68     		ldr	r2, [r3, #12]
 1762 0030 D2B2     		uxtb	r2, r2
 1763 0032 62F49062 		orn	r2, r2, #1152
 1764 0036 DA60     		str	r2, [r3, #12]
1075:Drivers/STM32F4xx_HAL_Driver/Src/stm32f4xx_hal_rtc_ex.c ****   
1076:Drivers/STM32F4xx_HAL_Driver/Src/stm32f4xx_hal_rtc_ex.c ****   /* Change RTC state */
1077:Drivers/STM32F4xx_HAL_Driver/Src/stm32f4xx_hal_rtc_ex.c ****   hrtc->State = HAL_RTC_STATE_READY;
 1765              		.loc 1 1077 0
 1766 0038 0123     		movs	r3, #1
 1767 003a 6377     		strb	r3, [r4, #29]
1078:Drivers/STM32F4xx_HAL_Driver/Src/stm32f4xx_hal_rtc_ex.c ****   
1079:Drivers/STM32F4xx_HAL_Driver/Src/stm32f4xx_hal_rtc_ex.c ****   return HAL_OK; 
 1768              		.loc 1 1079 0
 1769 003c 0020     		movs	r0, #0
1080:Drivers/STM32F4xx_HAL_Driver/Src/stm32f4xx_hal_rtc_ex.c **** }
 1770              		.loc 1 1080 0
 1771 003e 70BD     		pop	{r4, r5, r6, pc}
 1772              		.cfi_endproc
 1773              	.LFE144:
 1775              		.section	.text.HAL_RTCEx_BKUPWrite,"ax",%progbits
 1776              		.align	1
 1777              		.global	HAL_RTCEx_BKUPWrite
 1778              		.syntax unified
 1779              		.thumb
 1780              		.thumb_func
 1781              		.fpu fpv4-sp-d16
 1783              	HAL_RTCEx_BKUPWrite:
 1784              	.LFB145:
1081:Drivers/STM32F4xx_HAL_Driver/Src/stm32f4xx_hal_rtc_ex.c **** 
1082:Drivers/STM32F4xx_HAL_Driver/Src/stm32f4xx_hal_rtc_ex.c **** /**
1083:Drivers/STM32F4xx_HAL_Driver/Src/stm32f4xx_hal_rtc_ex.c ****   * @}
1084:Drivers/STM32F4xx_HAL_Driver/Src/stm32f4xx_hal_rtc_ex.c ****   */
1085:Drivers/STM32F4xx_HAL_Driver/Src/stm32f4xx_hal_rtc_ex.c **** 
1086:Drivers/STM32F4xx_HAL_Driver/Src/stm32f4xx_hal_rtc_ex.c **** 
1087:Drivers/STM32F4xx_HAL_Driver/Src/stm32f4xx_hal_rtc_ex.c **** /** @defgroup RTCEx_Exported_Functions_Group3 Extension Peripheral Control functions 
1088:Drivers/STM32F4xx_HAL_Driver/Src/stm32f4xx_hal_rtc_ex.c ****  *  @brief   Extension Peripheral Control functions 
ARM GAS  C:\Users\svcgu\AppData\Local\Temp\ccZ0uYCg.s 			page 52


1089:Drivers/STM32F4xx_HAL_Driver/Src/stm32f4xx_hal_rtc_ex.c ****  *
1090:Drivers/STM32F4xx_HAL_Driver/Src/stm32f4xx_hal_rtc_ex.c **** @verbatim   
1091:Drivers/STM32F4xx_HAL_Driver/Src/stm32f4xx_hal_rtc_ex.c ****  ===============================================================================
1092:Drivers/STM32F4xx_HAL_Driver/Src/stm32f4xx_hal_rtc_ex.c ****               ##### Extension Peripheral Control functions #####
1093:Drivers/STM32F4xx_HAL_Driver/Src/stm32f4xx_hal_rtc_ex.c ****  ===============================================================================  
1094:Drivers/STM32F4xx_HAL_Driver/Src/stm32f4xx_hal_rtc_ex.c ****     [..]
1095:Drivers/STM32F4xx_HAL_Driver/Src/stm32f4xx_hal_rtc_ex.c ****     This subsection provides functions allowing to
1096:Drivers/STM32F4xx_HAL_Driver/Src/stm32f4xx_hal_rtc_ex.c ****       (+) Write a data in a specified RTC Backup data register
1097:Drivers/STM32F4xx_HAL_Driver/Src/stm32f4xx_hal_rtc_ex.c ****       (+) Read a data in a specified RTC Backup data register
1098:Drivers/STM32F4xx_HAL_Driver/Src/stm32f4xx_hal_rtc_ex.c ****       (+) Set the Coarse calibration parameters.
1099:Drivers/STM32F4xx_HAL_Driver/Src/stm32f4xx_hal_rtc_ex.c ****       (+) Deactivate the Coarse calibration parameters
1100:Drivers/STM32F4xx_HAL_Driver/Src/stm32f4xx_hal_rtc_ex.c ****       (+) Set the Smooth calibration parameters.
1101:Drivers/STM32F4xx_HAL_Driver/Src/stm32f4xx_hal_rtc_ex.c ****       (+) Configure the Synchronization Shift Control Settings.
1102:Drivers/STM32F4xx_HAL_Driver/Src/stm32f4xx_hal_rtc_ex.c ****       (+) Configure the Calibration Pinout (RTC_CALIB) Selection (1Hz or 512Hz).
1103:Drivers/STM32F4xx_HAL_Driver/Src/stm32f4xx_hal_rtc_ex.c ****       (+) Deactivate the Calibration Pinout (RTC_CALIB) Selection (1Hz or 512Hz).
1104:Drivers/STM32F4xx_HAL_Driver/Src/stm32f4xx_hal_rtc_ex.c ****       (+) Enable the RTC reference clock detection.
1105:Drivers/STM32F4xx_HAL_Driver/Src/stm32f4xx_hal_rtc_ex.c ****       (+) Disable the RTC reference clock detection.
1106:Drivers/STM32F4xx_HAL_Driver/Src/stm32f4xx_hal_rtc_ex.c ****       (+) Enable the Bypass Shadow feature.
1107:Drivers/STM32F4xx_HAL_Driver/Src/stm32f4xx_hal_rtc_ex.c ****       (+) Disable the Bypass Shadow feature.
1108:Drivers/STM32F4xx_HAL_Driver/Src/stm32f4xx_hal_rtc_ex.c **** 
1109:Drivers/STM32F4xx_HAL_Driver/Src/stm32f4xx_hal_rtc_ex.c **** @endverbatim
1110:Drivers/STM32F4xx_HAL_Driver/Src/stm32f4xx_hal_rtc_ex.c ****   * @{
1111:Drivers/STM32F4xx_HAL_Driver/Src/stm32f4xx_hal_rtc_ex.c ****   */
1112:Drivers/STM32F4xx_HAL_Driver/Src/stm32f4xx_hal_rtc_ex.c **** 
1113:Drivers/STM32F4xx_HAL_Driver/Src/stm32f4xx_hal_rtc_ex.c **** /**
1114:Drivers/STM32F4xx_HAL_Driver/Src/stm32f4xx_hal_rtc_ex.c ****   * @brief  Writes a data in a specified RTC Backup data register.
1115:Drivers/STM32F4xx_HAL_Driver/Src/stm32f4xx_hal_rtc_ex.c ****   * @param  hrtc pointer to a RTC_HandleTypeDef structure that contains
1116:Drivers/STM32F4xx_HAL_Driver/Src/stm32f4xx_hal_rtc_ex.c ****   *                the configuration information for RTC. 
1117:Drivers/STM32F4xx_HAL_Driver/Src/stm32f4xx_hal_rtc_ex.c ****   * @param  BackupRegister RTC Backup data Register number.
1118:Drivers/STM32F4xx_HAL_Driver/Src/stm32f4xx_hal_rtc_ex.c ****   *          This parameter can be: RTC_BKP_DRx where x can be from 0 to 19 to 
1119:Drivers/STM32F4xx_HAL_Driver/Src/stm32f4xx_hal_rtc_ex.c ****   *                                 specify the register.
1120:Drivers/STM32F4xx_HAL_Driver/Src/stm32f4xx_hal_rtc_ex.c ****   * @param  Data Data to be written in the specified RTC Backup data register.                     
1121:Drivers/STM32F4xx_HAL_Driver/Src/stm32f4xx_hal_rtc_ex.c ****   * @retval None
1122:Drivers/STM32F4xx_HAL_Driver/Src/stm32f4xx_hal_rtc_ex.c ****   */
1123:Drivers/STM32F4xx_HAL_Driver/Src/stm32f4xx_hal_rtc_ex.c **** void HAL_RTCEx_BKUPWrite(RTC_HandleTypeDef *hrtc, uint32_t BackupRegister, uint32_t Data)
1124:Drivers/STM32F4xx_HAL_Driver/Src/stm32f4xx_hal_rtc_ex.c **** {
 1785              		.loc 1 1124 0
 1786              		.cfi_startproc
 1787              		@ args = 0, pretend = 0, frame = 0
 1788              		@ frame_needed = 0, uses_anonymous_args = 0
 1789              		@ link register save eliminated.
 1790              	.LVL139:
1125:Drivers/STM32F4xx_HAL_Driver/Src/stm32f4xx_hal_rtc_ex.c ****   uint32_t tmp = 0U;
1126:Drivers/STM32F4xx_HAL_Driver/Src/stm32f4xx_hal_rtc_ex.c ****   
1127:Drivers/STM32F4xx_HAL_Driver/Src/stm32f4xx_hal_rtc_ex.c ****   /* Check the parameters */
1128:Drivers/STM32F4xx_HAL_Driver/Src/stm32f4xx_hal_rtc_ex.c ****   assert_param(IS_RTC_BKP(BackupRegister));
1129:Drivers/STM32F4xx_HAL_Driver/Src/stm32f4xx_hal_rtc_ex.c ****   
1130:Drivers/STM32F4xx_HAL_Driver/Src/stm32f4xx_hal_rtc_ex.c ****   tmp = (uint32_t)&(hrtc->Instance->BKP0R);
 1791              		.loc 1 1130 0
 1792 0000 0368     		ldr	r3, [r0]
 1793 0002 5033     		adds	r3, r3, #80
 1794              	.LVL140:
1131:Drivers/STM32F4xx_HAL_Driver/Src/stm32f4xx_hal_rtc_ex.c ****   tmp += (BackupRegister * 4U);
1132:Drivers/STM32F4xx_HAL_Driver/Src/stm32f4xx_hal_rtc_ex.c ****   
1133:Drivers/STM32F4xx_HAL_Driver/Src/stm32f4xx_hal_rtc_ex.c ****   /* Write the specified register */
1134:Drivers/STM32F4xx_HAL_Driver/Src/stm32f4xx_hal_rtc_ex.c ****   *(__IO uint32_t *)tmp = (uint32_t)Data;
 1795              		.loc 1 1134 0
ARM GAS  C:\Users\svcgu\AppData\Local\Temp\ccZ0uYCg.s 			page 53


 1796 0004 43F82120 		str	r2, [r3, r1, lsl #2]
 1797 0008 7047     		bx	lr
 1798              		.cfi_endproc
 1799              	.LFE145:
 1801              		.section	.text.HAL_RTCEx_BKUPRead,"ax",%progbits
 1802              		.align	1
 1803              		.global	HAL_RTCEx_BKUPRead
 1804              		.syntax unified
 1805              		.thumb
 1806              		.thumb_func
 1807              		.fpu fpv4-sp-d16
 1809              	HAL_RTCEx_BKUPRead:
 1810              	.LFB146:
1135:Drivers/STM32F4xx_HAL_Driver/Src/stm32f4xx_hal_rtc_ex.c **** }
1136:Drivers/STM32F4xx_HAL_Driver/Src/stm32f4xx_hal_rtc_ex.c **** 
1137:Drivers/STM32F4xx_HAL_Driver/Src/stm32f4xx_hal_rtc_ex.c **** /**
1138:Drivers/STM32F4xx_HAL_Driver/Src/stm32f4xx_hal_rtc_ex.c ****   * @brief  Reads data from the specified RTC Backup data Register.
1139:Drivers/STM32F4xx_HAL_Driver/Src/stm32f4xx_hal_rtc_ex.c ****   * @param  hrtc pointer to a RTC_HandleTypeDef structure that contains
1140:Drivers/STM32F4xx_HAL_Driver/Src/stm32f4xx_hal_rtc_ex.c ****   *                the configuration information for RTC. 
1141:Drivers/STM32F4xx_HAL_Driver/Src/stm32f4xx_hal_rtc_ex.c ****   * @param  BackupRegister RTC Backup data Register number.
1142:Drivers/STM32F4xx_HAL_Driver/Src/stm32f4xx_hal_rtc_ex.c ****   *          This parameter can be: RTC_BKP_DRx where x can be from 0 to 19 to 
1143:Drivers/STM32F4xx_HAL_Driver/Src/stm32f4xx_hal_rtc_ex.c ****   *                                 specify the register.                   
1144:Drivers/STM32F4xx_HAL_Driver/Src/stm32f4xx_hal_rtc_ex.c ****   * @retval Read value
1145:Drivers/STM32F4xx_HAL_Driver/Src/stm32f4xx_hal_rtc_ex.c ****   */
1146:Drivers/STM32F4xx_HAL_Driver/Src/stm32f4xx_hal_rtc_ex.c **** uint32_t HAL_RTCEx_BKUPRead(RTC_HandleTypeDef *hrtc, uint32_t BackupRegister)
1147:Drivers/STM32F4xx_HAL_Driver/Src/stm32f4xx_hal_rtc_ex.c **** {
 1811              		.loc 1 1147 0
 1812              		.cfi_startproc
 1813              		@ args = 0, pretend = 0, frame = 0
 1814              		@ frame_needed = 0, uses_anonymous_args = 0
 1815              		@ link register save eliminated.
 1816              	.LVL141:
1148:Drivers/STM32F4xx_HAL_Driver/Src/stm32f4xx_hal_rtc_ex.c ****   uint32_t tmp = 0U;
1149:Drivers/STM32F4xx_HAL_Driver/Src/stm32f4xx_hal_rtc_ex.c ****   
1150:Drivers/STM32F4xx_HAL_Driver/Src/stm32f4xx_hal_rtc_ex.c ****   /* Check the parameters */
1151:Drivers/STM32F4xx_HAL_Driver/Src/stm32f4xx_hal_rtc_ex.c ****   assert_param(IS_RTC_BKP(BackupRegister));
1152:Drivers/STM32F4xx_HAL_Driver/Src/stm32f4xx_hal_rtc_ex.c **** 
1153:Drivers/STM32F4xx_HAL_Driver/Src/stm32f4xx_hal_rtc_ex.c ****   tmp = (uint32_t)&(hrtc->Instance->BKP0R);
 1817              		.loc 1 1153 0
 1818 0000 0368     		ldr	r3, [r0]
 1819 0002 5033     		adds	r3, r3, #80
 1820              	.LVL142:
1154:Drivers/STM32F4xx_HAL_Driver/Src/stm32f4xx_hal_rtc_ex.c ****   tmp += (BackupRegister * 4U);
1155:Drivers/STM32F4xx_HAL_Driver/Src/stm32f4xx_hal_rtc_ex.c ****   
1156:Drivers/STM32F4xx_HAL_Driver/Src/stm32f4xx_hal_rtc_ex.c ****   /* Read the specified register */
1157:Drivers/STM32F4xx_HAL_Driver/Src/stm32f4xx_hal_rtc_ex.c ****   return (*(__IO uint32_t *)tmp);
 1821              		.loc 1 1157 0
 1822 0004 53F82100 		ldr	r0, [r3, r1, lsl #2]
 1823              	.LVL143:
1158:Drivers/STM32F4xx_HAL_Driver/Src/stm32f4xx_hal_rtc_ex.c **** }
 1824              		.loc 1 1158 0
 1825 0008 7047     		bx	lr
 1826              		.cfi_endproc
 1827              	.LFE146:
 1829              		.section	.text.HAL_RTCEx_SetCoarseCalib,"ax",%progbits
 1830              		.align	1
 1831              		.global	HAL_RTCEx_SetCoarseCalib
ARM GAS  C:\Users\svcgu\AppData\Local\Temp\ccZ0uYCg.s 			page 54


 1832              		.syntax unified
 1833              		.thumb
 1834              		.thumb_func
 1835              		.fpu fpv4-sp-d16
 1837              	HAL_RTCEx_SetCoarseCalib:
 1838              	.LFB147:
1159:Drivers/STM32F4xx_HAL_Driver/Src/stm32f4xx_hal_rtc_ex.c ****       
1160:Drivers/STM32F4xx_HAL_Driver/Src/stm32f4xx_hal_rtc_ex.c **** /**
1161:Drivers/STM32F4xx_HAL_Driver/Src/stm32f4xx_hal_rtc_ex.c ****   * @brief  Sets the Coarse calibration parameters.
1162:Drivers/STM32F4xx_HAL_Driver/Src/stm32f4xx_hal_rtc_ex.c ****   * @param  hrtc pointer to a RTC_HandleTypeDef structure that contains
1163:Drivers/STM32F4xx_HAL_Driver/Src/stm32f4xx_hal_rtc_ex.c ****   *                the configuration information for RTC.  
1164:Drivers/STM32F4xx_HAL_Driver/Src/stm32f4xx_hal_rtc_ex.c ****   * @param  CalibSign Specifies the sign of the coarse calibration value.
1165:Drivers/STM32F4xx_HAL_Driver/Src/stm32f4xx_hal_rtc_ex.c ****   *          This parameter can be  one of the following values :
1166:Drivers/STM32F4xx_HAL_Driver/Src/stm32f4xx_hal_rtc_ex.c ****   *             @arg RTC_CALIBSIGN_POSITIVE: The value sign is positive 
1167:Drivers/STM32F4xx_HAL_Driver/Src/stm32f4xx_hal_rtc_ex.c ****   *             @arg RTC_CALIBSIGN_NEGATIVE: The value sign is negative
1168:Drivers/STM32F4xx_HAL_Driver/Src/stm32f4xx_hal_rtc_ex.c ****   * @param  Value value of coarse calibration expressed in ppm (coded on 5 bits).
1169:Drivers/STM32F4xx_HAL_Driver/Src/stm32f4xx_hal_rtc_ex.c ****   *    
1170:Drivers/STM32F4xx_HAL_Driver/Src/stm32f4xx_hal_rtc_ex.c ****   * @note   This Calibration value should be between 0 and 63 when using negative
1171:Drivers/STM32F4xx_HAL_Driver/Src/stm32f4xx_hal_rtc_ex.c ****   *         sign with a 2-ppm step.
1172:Drivers/STM32F4xx_HAL_Driver/Src/stm32f4xx_hal_rtc_ex.c ****   *           
1173:Drivers/STM32F4xx_HAL_Driver/Src/stm32f4xx_hal_rtc_ex.c ****   * @note   This Calibration value should be between 0 and 126 when using positive
1174:Drivers/STM32F4xx_HAL_Driver/Src/stm32f4xx_hal_rtc_ex.c ****   *         sign with a 4-ppm step.
1175:Drivers/STM32F4xx_HAL_Driver/Src/stm32f4xx_hal_rtc_ex.c ****   * @retval HAL status
1176:Drivers/STM32F4xx_HAL_Driver/Src/stm32f4xx_hal_rtc_ex.c ****   */
1177:Drivers/STM32F4xx_HAL_Driver/Src/stm32f4xx_hal_rtc_ex.c **** HAL_StatusTypeDef HAL_RTCEx_SetCoarseCalib(RTC_HandleTypeDef* hrtc, uint32_t CalibSign, uint32_t Va
1178:Drivers/STM32F4xx_HAL_Driver/Src/stm32f4xx_hal_rtc_ex.c **** {
 1839              		.loc 1 1178 0
 1840              		.cfi_startproc
 1841              		@ args = 0, pretend = 0, frame = 0
 1842              		@ frame_needed = 0, uses_anonymous_args = 0
 1843              	.LVL144:
1179:Drivers/STM32F4xx_HAL_Driver/Src/stm32f4xx_hal_rtc_ex.c ****   /* Check the parameters */
1180:Drivers/STM32F4xx_HAL_Driver/Src/stm32f4xx_hal_rtc_ex.c ****   assert_param(IS_RTC_CALIB_SIGN(CalibSign));
1181:Drivers/STM32F4xx_HAL_Driver/Src/stm32f4xx_hal_rtc_ex.c ****   assert_param(IS_RTC_CALIB_VALUE(Value)); 
1182:Drivers/STM32F4xx_HAL_Driver/Src/stm32f4xx_hal_rtc_ex.c ****   
1183:Drivers/STM32F4xx_HAL_Driver/Src/stm32f4xx_hal_rtc_ex.c ****   /* Process Locked */ 
1184:Drivers/STM32F4xx_HAL_Driver/Src/stm32f4xx_hal_rtc_ex.c ****   __HAL_LOCK(hrtc);
 1844              		.loc 1 1184 0
 1845 0000 037F     		ldrb	r3, [r0, #28]	@ zero_extendqisi2
 1846 0002 012B     		cmp	r3, #1
 1847 0004 02D1     		bne	.L145
 1848 0006 0223     		movs	r3, #2
1185:Drivers/STM32F4xx_HAL_Driver/Src/stm32f4xx_hal_rtc_ex.c ****   
1186:Drivers/STM32F4xx_HAL_Driver/Src/stm32f4xx_hal_rtc_ex.c ****   hrtc->State = HAL_RTC_STATE_BUSY;
1187:Drivers/STM32F4xx_HAL_Driver/Src/stm32f4xx_hal_rtc_ex.c **** 
1188:Drivers/STM32F4xx_HAL_Driver/Src/stm32f4xx_hal_rtc_ex.c ****   /* Disable the write protection for RTC registers */
1189:Drivers/STM32F4xx_HAL_Driver/Src/stm32f4xx_hal_rtc_ex.c ****   __HAL_RTC_WRITEPROTECTION_DISABLE(hrtc);
1190:Drivers/STM32F4xx_HAL_Driver/Src/stm32f4xx_hal_rtc_ex.c **** 
1191:Drivers/STM32F4xx_HAL_Driver/Src/stm32f4xx_hal_rtc_ex.c ****   /* Set Initialization mode */
1192:Drivers/STM32F4xx_HAL_Driver/Src/stm32f4xx_hal_rtc_ex.c ****   if(RTC_EnterInitMode(hrtc) != HAL_OK)
1193:Drivers/STM32F4xx_HAL_Driver/Src/stm32f4xx_hal_rtc_ex.c ****   {
1194:Drivers/STM32F4xx_HAL_Driver/Src/stm32f4xx_hal_rtc_ex.c ****     /* Enable the write protection for RTC registers */
1195:Drivers/STM32F4xx_HAL_Driver/Src/stm32f4xx_hal_rtc_ex.c ****     __HAL_RTC_WRITEPROTECTION_ENABLE(hrtc); 
1196:Drivers/STM32F4xx_HAL_Driver/Src/stm32f4xx_hal_rtc_ex.c ****     
1197:Drivers/STM32F4xx_HAL_Driver/Src/stm32f4xx_hal_rtc_ex.c ****     /* Set RTC state*/
1198:Drivers/STM32F4xx_HAL_Driver/Src/stm32f4xx_hal_rtc_ex.c ****     hrtc->State = HAL_RTC_STATE_ERROR;
1199:Drivers/STM32F4xx_HAL_Driver/Src/stm32f4xx_hal_rtc_ex.c ****     
ARM GAS  C:\Users\svcgu\AppData\Local\Temp\ccZ0uYCg.s 			page 55


1200:Drivers/STM32F4xx_HAL_Driver/Src/stm32f4xx_hal_rtc_ex.c ****     /* Process Unlocked */ 
1201:Drivers/STM32F4xx_HAL_Driver/Src/stm32f4xx_hal_rtc_ex.c ****     __HAL_UNLOCK(hrtc);
1202:Drivers/STM32F4xx_HAL_Driver/Src/stm32f4xx_hal_rtc_ex.c ****     
1203:Drivers/STM32F4xx_HAL_Driver/Src/stm32f4xx_hal_rtc_ex.c ****     return HAL_ERROR;
1204:Drivers/STM32F4xx_HAL_Driver/Src/stm32f4xx_hal_rtc_ex.c ****   } 
1205:Drivers/STM32F4xx_HAL_Driver/Src/stm32f4xx_hal_rtc_ex.c ****   else
1206:Drivers/STM32F4xx_HAL_Driver/Src/stm32f4xx_hal_rtc_ex.c ****   { 
1207:Drivers/STM32F4xx_HAL_Driver/Src/stm32f4xx_hal_rtc_ex.c ****     /* Enable the Coarse Calibration */
1208:Drivers/STM32F4xx_HAL_Driver/Src/stm32f4xx_hal_rtc_ex.c ****     __HAL_RTC_COARSE_CALIB_ENABLE(hrtc);
1209:Drivers/STM32F4xx_HAL_Driver/Src/stm32f4xx_hal_rtc_ex.c ****     
1210:Drivers/STM32F4xx_HAL_Driver/Src/stm32f4xx_hal_rtc_ex.c ****     /* Set the coarse calibration value */
1211:Drivers/STM32F4xx_HAL_Driver/Src/stm32f4xx_hal_rtc_ex.c ****     hrtc->Instance->CALIBR = (uint32_t)(CalibSign|Value);
1212:Drivers/STM32F4xx_HAL_Driver/Src/stm32f4xx_hal_rtc_ex.c ****     
1213:Drivers/STM32F4xx_HAL_Driver/Src/stm32f4xx_hal_rtc_ex.c ****     /* Exit Initialization mode */
1214:Drivers/STM32F4xx_HAL_Driver/Src/stm32f4xx_hal_rtc_ex.c ****     hrtc->Instance->ISR &= (uint32_t)~RTC_ISR_INIT; 
1215:Drivers/STM32F4xx_HAL_Driver/Src/stm32f4xx_hal_rtc_ex.c ****   } 
1216:Drivers/STM32F4xx_HAL_Driver/Src/stm32f4xx_hal_rtc_ex.c **** 
1217:Drivers/STM32F4xx_HAL_Driver/Src/stm32f4xx_hal_rtc_ex.c ****   /* Enable the write protection for RTC registers */
1218:Drivers/STM32F4xx_HAL_Driver/Src/stm32f4xx_hal_rtc_ex.c ****   __HAL_RTC_WRITEPROTECTION_ENABLE(hrtc);
1219:Drivers/STM32F4xx_HAL_Driver/Src/stm32f4xx_hal_rtc_ex.c ****   
1220:Drivers/STM32F4xx_HAL_Driver/Src/stm32f4xx_hal_rtc_ex.c ****   /* Change state */
1221:Drivers/STM32F4xx_HAL_Driver/Src/stm32f4xx_hal_rtc_ex.c ****   hrtc->State = HAL_RTC_STATE_READY; 
1222:Drivers/STM32F4xx_HAL_Driver/Src/stm32f4xx_hal_rtc_ex.c ****   
1223:Drivers/STM32F4xx_HAL_Driver/Src/stm32f4xx_hal_rtc_ex.c ****   /* Process Unlocked */ 
1224:Drivers/STM32F4xx_HAL_Driver/Src/stm32f4xx_hal_rtc_ex.c ****   __HAL_UNLOCK(hrtc);
1225:Drivers/STM32F4xx_HAL_Driver/Src/stm32f4xx_hal_rtc_ex.c ****   
1226:Drivers/STM32F4xx_HAL_Driver/Src/stm32f4xx_hal_rtc_ex.c ****   return HAL_OK;
1227:Drivers/STM32F4xx_HAL_Driver/Src/stm32f4xx_hal_rtc_ex.c **** }
 1849              		.loc 1 1227 0
 1850 0008 1846     		mov	r0, r3
 1851              	.LVL145:
 1852 000a 7047     		bx	lr
 1853              	.LVL146:
 1854              	.L145:
1178:Drivers/STM32F4xx_HAL_Driver/Src/stm32f4xx_hal_rtc_ex.c ****   /* Check the parameters */
 1855              		.loc 1 1178 0 discriminator 2
 1856 000c 70B5     		push	{r4, r5, r6, lr}
 1857              	.LCFI27:
 1858              		.cfi_def_cfa_offset 16
 1859              		.cfi_offset 4, -16
 1860              		.cfi_offset 5, -12
 1861              		.cfi_offset 6, -8
 1862              		.cfi_offset 14, -4
 1863 000e 1646     		mov	r6, r2
 1864 0010 0D46     		mov	r5, r1
 1865 0012 0446     		mov	r4, r0
1184:Drivers/STM32F4xx_HAL_Driver/Src/stm32f4xx_hal_rtc_ex.c ****   
 1866              		.loc 1 1184 0 discriminator 2
 1867 0014 0123     		movs	r3, #1
 1868 0016 0377     		strb	r3, [r0, #28]
1186:Drivers/STM32F4xx_HAL_Driver/Src/stm32f4xx_hal_rtc_ex.c **** 
 1869              		.loc 1 1186 0 discriminator 2
 1870 0018 0223     		movs	r3, #2
 1871 001a 4377     		strb	r3, [r0, #29]
1189:Drivers/STM32F4xx_HAL_Driver/Src/stm32f4xx_hal_rtc_ex.c **** 
 1872              		.loc 1 1189 0 discriminator 2
 1873 001c 0368     		ldr	r3, [r0]
ARM GAS  C:\Users\svcgu\AppData\Local\Temp\ccZ0uYCg.s 			page 56


 1874 001e CA22     		movs	r2, #202
 1875              	.LVL147:
 1876 0020 5A62     		str	r2, [r3, #36]
 1877 0022 0368     		ldr	r3, [r0]
 1878 0024 5322     		movs	r2, #83
 1879 0026 5A62     		str	r2, [r3, #36]
1192:Drivers/STM32F4xx_HAL_Driver/Src/stm32f4xx_hal_rtc_ex.c ****   {
 1880              		.loc 1 1192 0 discriminator 2
 1881 0028 FFF7FEFF 		bl	RTC_EnterInitMode
 1882              	.LVL148:
 1883 002c 0346     		mov	r3, r0
 1884 002e A8B9     		cbnz	r0, .L146
1208:Drivers/STM32F4xx_HAL_Driver/Src/stm32f4xx_hal_rtc_ex.c ****     
 1885              		.loc 1 1208 0
 1886 0030 2168     		ldr	r1, [r4]
 1887 0032 8A68     		ldr	r2, [r1, #8]
 1888 0034 42F08002 		orr	r2, r2, #128
 1889 0038 8A60     		str	r2, [r1, #8]
1211:Drivers/STM32F4xx_HAL_Driver/Src/stm32f4xx_hal_rtc_ex.c ****     
 1890              		.loc 1 1211 0
 1891 003a 2268     		ldr	r2, [r4]
 1892 003c 3543     		orrs	r5, r5, r6
 1893              	.LVL149:
 1894 003e 9561     		str	r5, [r2, #24]
1214:Drivers/STM32F4xx_HAL_Driver/Src/stm32f4xx_hal_rtc_ex.c ****   } 
 1895              		.loc 1 1214 0
 1896 0040 2168     		ldr	r1, [r4]
 1897 0042 CA68     		ldr	r2, [r1, #12]
 1898 0044 22F08002 		bic	r2, r2, #128
 1899 0048 CA60     		str	r2, [r1, #12]
1218:Drivers/STM32F4xx_HAL_Driver/Src/stm32f4xx_hal_rtc_ex.c ****   
 1900              		.loc 1 1218 0
 1901 004a 2268     		ldr	r2, [r4]
 1902 004c FF21     		movs	r1, #255
 1903 004e 5162     		str	r1, [r2, #36]
1221:Drivers/STM32F4xx_HAL_Driver/Src/stm32f4xx_hal_rtc_ex.c ****   
 1904              		.loc 1 1221 0
 1905 0050 0122     		movs	r2, #1
 1906 0052 6277     		strb	r2, [r4, #29]
1224:Drivers/STM32F4xx_HAL_Driver/Src/stm32f4xx_hal_rtc_ex.c ****   
 1907              		.loc 1 1224 0
 1908 0054 0022     		movs	r2, #0
 1909 0056 2277     		strb	r2, [r4, #28]
 1910              	.L138:
 1911              		.loc 1 1227 0
 1912 0058 1846     		mov	r0, r3
 1913 005a 70BD     		pop	{r4, r5, r6, pc}
 1914              	.LVL150:
 1915              	.L146:
1195:Drivers/STM32F4xx_HAL_Driver/Src/stm32f4xx_hal_rtc_ex.c ****     
 1916              		.loc 1 1195 0
 1917 005c 2368     		ldr	r3, [r4]
 1918 005e FF22     		movs	r2, #255
 1919 0060 5A62     		str	r2, [r3, #36]
1198:Drivers/STM32F4xx_HAL_Driver/Src/stm32f4xx_hal_rtc_ex.c ****     
 1920              		.loc 1 1198 0
 1921 0062 0423     		movs	r3, #4
ARM GAS  C:\Users\svcgu\AppData\Local\Temp\ccZ0uYCg.s 			page 57


 1922 0064 6377     		strb	r3, [r4, #29]
1201:Drivers/STM32F4xx_HAL_Driver/Src/stm32f4xx_hal_rtc_ex.c ****     
 1923              		.loc 1 1201 0
 1924 0066 0023     		movs	r3, #0
 1925 0068 2377     		strb	r3, [r4, #28]
1203:Drivers/STM32F4xx_HAL_Driver/Src/stm32f4xx_hal_rtc_ex.c ****   } 
 1926              		.loc 1 1203 0
 1927 006a 0123     		movs	r3, #1
 1928 006c F4E7     		b	.L138
 1929              		.cfi_endproc
 1930              	.LFE147:
 1932              		.section	.text.HAL_RTCEx_DeactivateCoarseCalib,"ax",%progbits
 1933              		.align	1
 1934              		.global	HAL_RTCEx_DeactivateCoarseCalib
 1935              		.syntax unified
 1936              		.thumb
 1937              		.thumb_func
 1938              		.fpu fpv4-sp-d16
 1940              	HAL_RTCEx_DeactivateCoarseCalib:
 1941              	.LFB148:
1228:Drivers/STM32F4xx_HAL_Driver/Src/stm32f4xx_hal_rtc_ex.c **** 
1229:Drivers/STM32F4xx_HAL_Driver/Src/stm32f4xx_hal_rtc_ex.c **** /**
1230:Drivers/STM32F4xx_HAL_Driver/Src/stm32f4xx_hal_rtc_ex.c ****   * @brief  Deactivates the Coarse calibration parameters.
1231:Drivers/STM32F4xx_HAL_Driver/Src/stm32f4xx_hal_rtc_ex.c ****   * @param  hrtc pointer to a RTC_HandleTypeDef structure that contains
1232:Drivers/STM32F4xx_HAL_Driver/Src/stm32f4xx_hal_rtc_ex.c ****   *                the configuration information for RTC.  
1233:Drivers/STM32F4xx_HAL_Driver/Src/stm32f4xx_hal_rtc_ex.c ****   * @retval HAL status
1234:Drivers/STM32F4xx_HAL_Driver/Src/stm32f4xx_hal_rtc_ex.c ****   */
1235:Drivers/STM32F4xx_HAL_Driver/Src/stm32f4xx_hal_rtc_ex.c **** HAL_StatusTypeDef HAL_RTCEx_DeactivateCoarseCalib(RTC_HandleTypeDef* hrtc)
1236:Drivers/STM32F4xx_HAL_Driver/Src/stm32f4xx_hal_rtc_ex.c **** { 
 1942              		.loc 1 1236 0
 1943              		.cfi_startproc
 1944              		@ args = 0, pretend = 0, frame = 0
 1945              		@ frame_needed = 0, uses_anonymous_args = 0
 1946              	.LVL151:
1237:Drivers/STM32F4xx_HAL_Driver/Src/stm32f4xx_hal_rtc_ex.c ****   /* Process Locked */ 
1238:Drivers/STM32F4xx_HAL_Driver/Src/stm32f4xx_hal_rtc_ex.c ****   __HAL_LOCK(hrtc);
 1947              		.loc 1 1238 0
 1948 0000 037F     		ldrb	r3, [r0, #28]	@ zero_extendqisi2
 1949 0002 012B     		cmp	r3, #1
 1950 0004 02D1     		bne	.L155
 1951 0006 0223     		movs	r3, #2
1239:Drivers/STM32F4xx_HAL_Driver/Src/stm32f4xx_hal_rtc_ex.c ****   
1240:Drivers/STM32F4xx_HAL_Driver/Src/stm32f4xx_hal_rtc_ex.c ****   hrtc->State = HAL_RTC_STATE_BUSY;
1241:Drivers/STM32F4xx_HAL_Driver/Src/stm32f4xx_hal_rtc_ex.c ****   
1242:Drivers/STM32F4xx_HAL_Driver/Src/stm32f4xx_hal_rtc_ex.c ****   /* Disable the write protection for RTC registers */
1243:Drivers/STM32F4xx_HAL_Driver/Src/stm32f4xx_hal_rtc_ex.c ****   __HAL_RTC_WRITEPROTECTION_DISABLE(hrtc);
1244:Drivers/STM32F4xx_HAL_Driver/Src/stm32f4xx_hal_rtc_ex.c **** 
1245:Drivers/STM32F4xx_HAL_Driver/Src/stm32f4xx_hal_rtc_ex.c ****   /* Set Initialization mode */
1246:Drivers/STM32F4xx_HAL_Driver/Src/stm32f4xx_hal_rtc_ex.c ****   if(RTC_EnterInitMode(hrtc) != HAL_OK)
1247:Drivers/STM32F4xx_HAL_Driver/Src/stm32f4xx_hal_rtc_ex.c ****   {
1248:Drivers/STM32F4xx_HAL_Driver/Src/stm32f4xx_hal_rtc_ex.c ****     /* Enable the write protection for RTC registers */
1249:Drivers/STM32F4xx_HAL_Driver/Src/stm32f4xx_hal_rtc_ex.c ****     __HAL_RTC_WRITEPROTECTION_ENABLE(hrtc); 
1250:Drivers/STM32F4xx_HAL_Driver/Src/stm32f4xx_hal_rtc_ex.c ****     
1251:Drivers/STM32F4xx_HAL_Driver/Src/stm32f4xx_hal_rtc_ex.c ****     /* Set RTC state*/
1252:Drivers/STM32F4xx_HAL_Driver/Src/stm32f4xx_hal_rtc_ex.c ****     hrtc->State = HAL_RTC_STATE_ERROR;
1253:Drivers/STM32F4xx_HAL_Driver/Src/stm32f4xx_hal_rtc_ex.c ****     
1254:Drivers/STM32F4xx_HAL_Driver/Src/stm32f4xx_hal_rtc_ex.c ****     /* Process Unlocked */ 
ARM GAS  C:\Users\svcgu\AppData\Local\Temp\ccZ0uYCg.s 			page 58


1255:Drivers/STM32F4xx_HAL_Driver/Src/stm32f4xx_hal_rtc_ex.c ****     __HAL_UNLOCK(hrtc);
1256:Drivers/STM32F4xx_HAL_Driver/Src/stm32f4xx_hal_rtc_ex.c ****     
1257:Drivers/STM32F4xx_HAL_Driver/Src/stm32f4xx_hal_rtc_ex.c ****     return HAL_ERROR;
1258:Drivers/STM32F4xx_HAL_Driver/Src/stm32f4xx_hal_rtc_ex.c ****   } 
1259:Drivers/STM32F4xx_HAL_Driver/Src/stm32f4xx_hal_rtc_ex.c ****   else
1260:Drivers/STM32F4xx_HAL_Driver/Src/stm32f4xx_hal_rtc_ex.c ****   { 
1261:Drivers/STM32F4xx_HAL_Driver/Src/stm32f4xx_hal_rtc_ex.c ****     /* Enable the Coarse Calibration */
1262:Drivers/STM32F4xx_HAL_Driver/Src/stm32f4xx_hal_rtc_ex.c ****     __HAL_RTC_COARSE_CALIB_DISABLE(hrtc);
1263:Drivers/STM32F4xx_HAL_Driver/Src/stm32f4xx_hal_rtc_ex.c ****     
1264:Drivers/STM32F4xx_HAL_Driver/Src/stm32f4xx_hal_rtc_ex.c ****     /* Exit Initialization mode */
1265:Drivers/STM32F4xx_HAL_Driver/Src/stm32f4xx_hal_rtc_ex.c ****     hrtc->Instance->ISR &= (uint32_t)~RTC_ISR_INIT; 
1266:Drivers/STM32F4xx_HAL_Driver/Src/stm32f4xx_hal_rtc_ex.c ****   } 
1267:Drivers/STM32F4xx_HAL_Driver/Src/stm32f4xx_hal_rtc_ex.c **** 
1268:Drivers/STM32F4xx_HAL_Driver/Src/stm32f4xx_hal_rtc_ex.c ****   /* Enable the write protection for RTC registers */
1269:Drivers/STM32F4xx_HAL_Driver/Src/stm32f4xx_hal_rtc_ex.c ****   __HAL_RTC_WRITEPROTECTION_ENABLE(hrtc);
1270:Drivers/STM32F4xx_HAL_Driver/Src/stm32f4xx_hal_rtc_ex.c ****   
1271:Drivers/STM32F4xx_HAL_Driver/Src/stm32f4xx_hal_rtc_ex.c ****   /* Change state */
1272:Drivers/STM32F4xx_HAL_Driver/Src/stm32f4xx_hal_rtc_ex.c ****   hrtc->State = HAL_RTC_STATE_READY; 
1273:Drivers/STM32F4xx_HAL_Driver/Src/stm32f4xx_hal_rtc_ex.c ****   
1274:Drivers/STM32F4xx_HAL_Driver/Src/stm32f4xx_hal_rtc_ex.c ****   /* Process Unlocked */ 
1275:Drivers/STM32F4xx_HAL_Driver/Src/stm32f4xx_hal_rtc_ex.c ****   __HAL_UNLOCK(hrtc);
1276:Drivers/STM32F4xx_HAL_Driver/Src/stm32f4xx_hal_rtc_ex.c ****   
1277:Drivers/STM32F4xx_HAL_Driver/Src/stm32f4xx_hal_rtc_ex.c ****   return HAL_OK;
1278:Drivers/STM32F4xx_HAL_Driver/Src/stm32f4xx_hal_rtc_ex.c **** }
 1952              		.loc 1 1278 0
 1953 0008 1846     		mov	r0, r3
 1954              	.LVL152:
 1955 000a 7047     		bx	lr
 1956              	.LVL153:
 1957              	.L155:
1236:Drivers/STM32F4xx_HAL_Driver/Src/stm32f4xx_hal_rtc_ex.c ****   /* Process Locked */ 
 1958              		.loc 1 1236 0 discriminator 2
 1959 000c 10B5     		push	{r4, lr}
 1960              	.LCFI28:
 1961              		.cfi_def_cfa_offset 8
 1962              		.cfi_offset 4, -8
 1963              		.cfi_offset 14, -4
 1964 000e 0446     		mov	r4, r0
1238:Drivers/STM32F4xx_HAL_Driver/Src/stm32f4xx_hal_rtc_ex.c ****   
 1965              		.loc 1 1238 0 discriminator 2
 1966 0010 0123     		movs	r3, #1
 1967 0012 0377     		strb	r3, [r0, #28]
1240:Drivers/STM32F4xx_HAL_Driver/Src/stm32f4xx_hal_rtc_ex.c ****   
 1968              		.loc 1 1240 0 discriminator 2
 1969 0014 0223     		movs	r3, #2
 1970 0016 4377     		strb	r3, [r0, #29]
1243:Drivers/STM32F4xx_HAL_Driver/Src/stm32f4xx_hal_rtc_ex.c **** 
 1971              		.loc 1 1243 0 discriminator 2
 1972 0018 0368     		ldr	r3, [r0]
 1973 001a CA22     		movs	r2, #202
 1974 001c 5A62     		str	r2, [r3, #36]
 1975 001e 0368     		ldr	r3, [r0]
 1976 0020 5322     		movs	r2, #83
 1977 0022 5A62     		str	r2, [r3, #36]
1246:Drivers/STM32F4xx_HAL_Driver/Src/stm32f4xx_hal_rtc_ex.c ****   {
 1978              		.loc 1 1246 0 discriminator 2
 1979 0024 FFF7FEFF 		bl	RTC_EnterInitMode
ARM GAS  C:\Users\svcgu\AppData\Local\Temp\ccZ0uYCg.s 			page 59


 1980              	.LVL154:
 1981 0028 0346     		mov	r3, r0
 1982 002a 90B9     		cbnz	r0, .L156
1262:Drivers/STM32F4xx_HAL_Driver/Src/stm32f4xx_hal_rtc_ex.c ****     
 1983              		.loc 1 1262 0
 1984 002c 2168     		ldr	r1, [r4]
 1985 002e 8A68     		ldr	r2, [r1, #8]
 1986 0030 22F08002 		bic	r2, r2, #128
 1987 0034 8A60     		str	r2, [r1, #8]
1265:Drivers/STM32F4xx_HAL_Driver/Src/stm32f4xx_hal_rtc_ex.c ****   } 
 1988              		.loc 1 1265 0
 1989 0036 2168     		ldr	r1, [r4]
 1990 0038 CA68     		ldr	r2, [r1, #12]
 1991 003a 22F08002 		bic	r2, r2, #128
 1992 003e CA60     		str	r2, [r1, #12]
1269:Drivers/STM32F4xx_HAL_Driver/Src/stm32f4xx_hal_rtc_ex.c ****   
 1993              		.loc 1 1269 0
 1994 0040 2268     		ldr	r2, [r4]
 1995 0042 FF21     		movs	r1, #255
 1996 0044 5162     		str	r1, [r2, #36]
1272:Drivers/STM32F4xx_HAL_Driver/Src/stm32f4xx_hal_rtc_ex.c ****   
 1997              		.loc 1 1272 0
 1998 0046 0122     		movs	r2, #1
 1999 0048 6277     		strb	r2, [r4, #29]
1275:Drivers/STM32F4xx_HAL_Driver/Src/stm32f4xx_hal_rtc_ex.c ****   
 2000              		.loc 1 1275 0
 2001 004a 0022     		movs	r2, #0
 2002 004c 2277     		strb	r2, [r4, #28]
 2003              	.L148:
 2004              		.loc 1 1278 0
 2005 004e 1846     		mov	r0, r3
 2006 0050 10BD     		pop	{r4, pc}
 2007              	.LVL155:
 2008              	.L156:
1249:Drivers/STM32F4xx_HAL_Driver/Src/stm32f4xx_hal_rtc_ex.c ****     
 2009              		.loc 1 1249 0
 2010 0052 2368     		ldr	r3, [r4]
 2011 0054 FF22     		movs	r2, #255
 2012 0056 5A62     		str	r2, [r3, #36]
1252:Drivers/STM32F4xx_HAL_Driver/Src/stm32f4xx_hal_rtc_ex.c ****     
 2013              		.loc 1 1252 0
 2014 0058 0423     		movs	r3, #4
 2015 005a 6377     		strb	r3, [r4, #29]
1255:Drivers/STM32F4xx_HAL_Driver/Src/stm32f4xx_hal_rtc_ex.c ****     
 2016              		.loc 1 1255 0
 2017 005c 0023     		movs	r3, #0
 2018 005e 2377     		strb	r3, [r4, #28]
1257:Drivers/STM32F4xx_HAL_Driver/Src/stm32f4xx_hal_rtc_ex.c ****   } 
 2019              		.loc 1 1257 0
 2020 0060 0123     		movs	r3, #1
 2021 0062 F4E7     		b	.L148
 2022              		.cfi_endproc
 2023              	.LFE148:
 2025              		.section	.text.HAL_RTCEx_SetSmoothCalib,"ax",%progbits
 2026              		.align	1
 2027              		.global	HAL_RTCEx_SetSmoothCalib
 2028              		.syntax unified
ARM GAS  C:\Users\svcgu\AppData\Local\Temp\ccZ0uYCg.s 			page 60


 2029              		.thumb
 2030              		.thumb_func
 2031              		.fpu fpv4-sp-d16
 2033              	HAL_RTCEx_SetSmoothCalib:
 2034              	.LFB149:
1279:Drivers/STM32F4xx_HAL_Driver/Src/stm32f4xx_hal_rtc_ex.c **** 
1280:Drivers/STM32F4xx_HAL_Driver/Src/stm32f4xx_hal_rtc_ex.c **** /**
1281:Drivers/STM32F4xx_HAL_Driver/Src/stm32f4xx_hal_rtc_ex.c ****   * @brief  Sets the Smooth calibration parameters.
1282:Drivers/STM32F4xx_HAL_Driver/Src/stm32f4xx_hal_rtc_ex.c ****   * @param  hrtc pointer to a RTC_HandleTypeDef structure that contains
1283:Drivers/STM32F4xx_HAL_Driver/Src/stm32f4xx_hal_rtc_ex.c ****   *                the configuration information for RTC.  
1284:Drivers/STM32F4xx_HAL_Driver/Src/stm32f4xx_hal_rtc_ex.c ****   * @param  SmoothCalibPeriod Select the Smooth Calibration Period.
1285:Drivers/STM32F4xx_HAL_Driver/Src/stm32f4xx_hal_rtc_ex.c ****   *          This parameter can be can be one of the following values :
1286:Drivers/STM32F4xx_HAL_Driver/Src/stm32f4xx_hal_rtc_ex.c ****   *             @arg RTC_SMOOTHCALIB_PERIOD_32SEC: The smooth calibration period is 32s.
1287:Drivers/STM32F4xx_HAL_Driver/Src/stm32f4xx_hal_rtc_ex.c ****   *             @arg RTC_SMOOTHCALIB_PERIOD_16SEC: The smooth calibration period is 16s.
1288:Drivers/STM32F4xx_HAL_Driver/Src/stm32f4xx_hal_rtc_ex.c ****   *             @arg RTC_SMOOTHCALIB_PERIOD_8SEC: The smooth calibration period is 8s.
1289:Drivers/STM32F4xx_HAL_Driver/Src/stm32f4xx_hal_rtc_ex.c ****   * @param  SmoothCalibPlusPulses Select to Set or reset the CALP bit.
1290:Drivers/STM32F4xx_HAL_Driver/Src/stm32f4xx_hal_rtc_ex.c ****   *          This parameter can be one of the following values:
1291:Drivers/STM32F4xx_HAL_Driver/Src/stm32f4xx_hal_rtc_ex.c ****   *             @arg RTC_SMOOTHCALIB_PLUSPULSES_SET: Add one RTCCLK pulse every 2*11 pulses.
1292:Drivers/STM32F4xx_HAL_Driver/Src/stm32f4xx_hal_rtc_ex.c ****   *             @arg RTC_SMOOTHCALIB_PLUSPULSES_RESET: No RTCCLK pulses are added.
1293:Drivers/STM32F4xx_HAL_Driver/Src/stm32f4xx_hal_rtc_ex.c ****   * @param  SmouthCalibMinusPulsesValue Select the value of CALM[80] bits.
1294:Drivers/STM32F4xx_HAL_Driver/Src/stm32f4xx_hal_rtc_ex.c ****   *          This parameter can be one any value from 0 to 0x000001FF.
1295:Drivers/STM32F4xx_HAL_Driver/Src/stm32f4xx_hal_rtc_ex.c ****   * @note   To deactivate the smooth calibration, the field SmoothCalibPlusPulses 
1296:Drivers/STM32F4xx_HAL_Driver/Src/stm32f4xx_hal_rtc_ex.c ****   *         must be equal to SMOOTHCALIB_PLUSPULSES_RESET and the field 
1297:Drivers/STM32F4xx_HAL_Driver/Src/stm32f4xx_hal_rtc_ex.c ****   *         SmouthCalibMinusPulsesValue must be equal to 0.  
1298:Drivers/STM32F4xx_HAL_Driver/Src/stm32f4xx_hal_rtc_ex.c ****   * @retval HAL status
1299:Drivers/STM32F4xx_HAL_Driver/Src/stm32f4xx_hal_rtc_ex.c ****   */
1300:Drivers/STM32F4xx_HAL_Driver/Src/stm32f4xx_hal_rtc_ex.c **** HAL_StatusTypeDef HAL_RTCEx_SetSmoothCalib(RTC_HandleTypeDef* hrtc, uint32_t SmoothCalibPeriod, uin
1301:Drivers/STM32F4xx_HAL_Driver/Src/stm32f4xx_hal_rtc_ex.c **** {
 2035              		.loc 1 1301 0
 2036              		.cfi_startproc
 2037              		@ args = 0, pretend = 0, frame = 0
 2038              		@ frame_needed = 0, uses_anonymous_args = 0
 2039              	.LVL156:
 2040 0000 2DE9F041 		push	{r4, r5, r6, r7, r8, lr}
 2041              	.LCFI29:
 2042              		.cfi_def_cfa_offset 24
 2043              		.cfi_offset 4, -24
 2044              		.cfi_offset 5, -20
 2045              		.cfi_offset 6, -16
 2046              		.cfi_offset 7, -12
 2047              		.cfi_offset 8, -8
 2048              		.cfi_offset 14, -4
 2049              	.LVL157:
1302:Drivers/STM32F4xx_HAL_Driver/Src/stm32f4xx_hal_rtc_ex.c ****   uint32_t tickstart = 0U;
1303:Drivers/STM32F4xx_HAL_Driver/Src/stm32f4xx_hal_rtc_ex.c ****   
1304:Drivers/STM32F4xx_HAL_Driver/Src/stm32f4xx_hal_rtc_ex.c ****   /* Check the parameters */
1305:Drivers/STM32F4xx_HAL_Driver/Src/stm32f4xx_hal_rtc_ex.c ****   assert_param(IS_RTC_SMOOTH_CALIB_PERIOD(SmoothCalibPeriod));
1306:Drivers/STM32F4xx_HAL_Driver/Src/stm32f4xx_hal_rtc_ex.c ****   assert_param(IS_RTC_SMOOTH_CALIB_PLUS(SmoothCalibPlusPulses));
1307:Drivers/STM32F4xx_HAL_Driver/Src/stm32f4xx_hal_rtc_ex.c ****   assert_param(IS_RTC_SMOOTH_CALIB_MINUS(SmouthCalibMinusPulsesValue));
1308:Drivers/STM32F4xx_HAL_Driver/Src/stm32f4xx_hal_rtc_ex.c ****   
1309:Drivers/STM32F4xx_HAL_Driver/Src/stm32f4xx_hal_rtc_ex.c ****   /* Process Locked */ 
1310:Drivers/STM32F4xx_HAL_Driver/Src/stm32f4xx_hal_rtc_ex.c ****   __HAL_LOCK(hrtc);
 2050              		.loc 1 1310 0
 2051 0004 047F     		ldrb	r4, [r0, #28]	@ zero_extendqisi2
 2052 0006 012C     		cmp	r4, #1
 2053 0008 37D0     		beq	.L162
 2054 000a 1E46     		mov	r6, r3
ARM GAS  C:\Users\svcgu\AppData\Local\Temp\ccZ0uYCg.s 			page 61


 2055 000c 1746     		mov	r7, r2
 2056 000e 0D46     		mov	r5, r1
 2057 0010 0446     		mov	r4, r0
 2058              		.loc 1 1310 0 is_stmt 0 discriminator 2
 2059 0012 0123     		movs	r3, #1
 2060              	.LVL158:
 2061 0014 0377     		strb	r3, [r0, #28]
1311:Drivers/STM32F4xx_HAL_Driver/Src/stm32f4xx_hal_rtc_ex.c ****   
1312:Drivers/STM32F4xx_HAL_Driver/Src/stm32f4xx_hal_rtc_ex.c ****   hrtc->State = HAL_RTC_STATE_BUSY;
 2062              		.loc 1 1312 0 is_stmt 1 discriminator 2
 2063 0016 0223     		movs	r3, #2
 2064 0018 4377     		strb	r3, [r0, #29]
1313:Drivers/STM32F4xx_HAL_Driver/Src/stm32f4xx_hal_rtc_ex.c ****   
1314:Drivers/STM32F4xx_HAL_Driver/Src/stm32f4xx_hal_rtc_ex.c ****   /* Disable the write protection for RTC registers */
1315:Drivers/STM32F4xx_HAL_Driver/Src/stm32f4xx_hal_rtc_ex.c ****   __HAL_RTC_WRITEPROTECTION_DISABLE(hrtc);
 2065              		.loc 1 1315 0 discriminator 2
 2066 001a 0368     		ldr	r3, [r0]
 2067 001c CA22     		movs	r2, #202
 2068              	.LVL159:
 2069 001e 5A62     		str	r2, [r3, #36]
 2070 0020 0368     		ldr	r3, [r0]
 2071 0022 5322     		movs	r2, #83
 2072 0024 5A62     		str	r2, [r3, #36]
1316:Drivers/STM32F4xx_HAL_Driver/Src/stm32f4xx_hal_rtc_ex.c ****   
1317:Drivers/STM32F4xx_HAL_Driver/Src/stm32f4xx_hal_rtc_ex.c ****   /* check if a calibration is pending*/
1318:Drivers/STM32F4xx_HAL_Driver/Src/stm32f4xx_hal_rtc_ex.c ****   if((hrtc->Instance->ISR & RTC_ISR_RECALPF) != RESET)
 2073              		.loc 1 1318 0 discriminator 2
 2074 0026 0368     		ldr	r3, [r0]
 2075 0028 DB68     		ldr	r3, [r3, #12]
 2076 002a 13F4803F 		tst	r3, #65536
 2077 002e 0CD1     		bne	.L164
 2078              	.LVL160:
 2079              	.L159:
1319:Drivers/STM32F4xx_HAL_Driver/Src/stm32f4xx_hal_rtc_ex.c ****   {
1320:Drivers/STM32F4xx_HAL_Driver/Src/stm32f4xx_hal_rtc_ex.c ****   /* Get tick */
1321:Drivers/STM32F4xx_HAL_Driver/Src/stm32f4xx_hal_rtc_ex.c ****   tickstart = HAL_GetTick();
1322:Drivers/STM32F4xx_HAL_Driver/Src/stm32f4xx_hal_rtc_ex.c **** 
1323:Drivers/STM32F4xx_HAL_Driver/Src/stm32f4xx_hal_rtc_ex.c ****     /* check if a calibration is pending*/
1324:Drivers/STM32F4xx_HAL_Driver/Src/stm32f4xx_hal_rtc_ex.c ****     while((hrtc->Instance->ISR & RTC_ISR_RECALPF) != RESET)
1325:Drivers/STM32F4xx_HAL_Driver/Src/stm32f4xx_hal_rtc_ex.c ****     {
1326:Drivers/STM32F4xx_HAL_Driver/Src/stm32f4xx_hal_rtc_ex.c ****       if((HAL_GetTick() - tickstart ) > RTC_TIMEOUT_VALUE)
1327:Drivers/STM32F4xx_HAL_Driver/Src/stm32f4xx_hal_rtc_ex.c ****       {
1328:Drivers/STM32F4xx_HAL_Driver/Src/stm32f4xx_hal_rtc_ex.c ****         /* Enable the write protection for RTC registers */
1329:Drivers/STM32F4xx_HAL_Driver/Src/stm32f4xx_hal_rtc_ex.c ****         __HAL_RTC_WRITEPROTECTION_ENABLE(hrtc);
1330:Drivers/STM32F4xx_HAL_Driver/Src/stm32f4xx_hal_rtc_ex.c ****         
1331:Drivers/STM32F4xx_HAL_Driver/Src/stm32f4xx_hal_rtc_ex.c ****         /* Change RTC state */
1332:Drivers/STM32F4xx_HAL_Driver/Src/stm32f4xx_hal_rtc_ex.c ****         hrtc->State = HAL_RTC_STATE_TIMEOUT; 
1333:Drivers/STM32F4xx_HAL_Driver/Src/stm32f4xx_hal_rtc_ex.c ****         
1334:Drivers/STM32F4xx_HAL_Driver/Src/stm32f4xx_hal_rtc_ex.c ****         /* Process Unlocked */ 
1335:Drivers/STM32F4xx_HAL_Driver/Src/stm32f4xx_hal_rtc_ex.c ****         __HAL_UNLOCK(hrtc);
1336:Drivers/STM32F4xx_HAL_Driver/Src/stm32f4xx_hal_rtc_ex.c ****         
1337:Drivers/STM32F4xx_HAL_Driver/Src/stm32f4xx_hal_rtc_ex.c ****         return HAL_TIMEOUT;
1338:Drivers/STM32F4xx_HAL_Driver/Src/stm32f4xx_hal_rtc_ex.c ****       }
1339:Drivers/STM32F4xx_HAL_Driver/Src/stm32f4xx_hal_rtc_ex.c ****     }
1340:Drivers/STM32F4xx_HAL_Driver/Src/stm32f4xx_hal_rtc_ex.c ****   }
1341:Drivers/STM32F4xx_HAL_Driver/Src/stm32f4xx_hal_rtc_ex.c ****   
1342:Drivers/STM32F4xx_HAL_Driver/Src/stm32f4xx_hal_rtc_ex.c ****   /* Configure the Smooth calibration settings */
ARM GAS  C:\Users\svcgu\AppData\Local\Temp\ccZ0uYCg.s 			page 62


1343:Drivers/STM32F4xx_HAL_Driver/Src/stm32f4xx_hal_rtc_ex.c ****   hrtc->Instance->CALR = (uint32_t)((uint32_t)SmoothCalibPeriod | (uint32_t)SmoothCalibPlusPulses |
 2080              		.loc 1 1343 0
 2081 0030 2368     		ldr	r3, [r4]
 2082 0032 3D43     		orrs	r5, r5, r7
 2083              	.LVL161:
 2084 0034 3543     		orrs	r5, r5, r6
 2085 0036 DD63     		str	r5, [r3, #60]
1344:Drivers/STM32F4xx_HAL_Driver/Src/stm32f4xx_hal_rtc_ex.c ****   
1345:Drivers/STM32F4xx_HAL_Driver/Src/stm32f4xx_hal_rtc_ex.c ****   /* Enable the write protection for RTC registers */
1346:Drivers/STM32F4xx_HAL_Driver/Src/stm32f4xx_hal_rtc_ex.c ****   __HAL_RTC_WRITEPROTECTION_ENABLE(hrtc);
 2086              		.loc 1 1346 0
 2087 0038 2368     		ldr	r3, [r4]
 2088 003a FF22     		movs	r2, #255
 2089 003c 5A62     		str	r2, [r3, #36]
1347:Drivers/STM32F4xx_HAL_Driver/Src/stm32f4xx_hal_rtc_ex.c ****   
1348:Drivers/STM32F4xx_HAL_Driver/Src/stm32f4xx_hal_rtc_ex.c ****   /* Change RTC state */
1349:Drivers/STM32F4xx_HAL_Driver/Src/stm32f4xx_hal_rtc_ex.c ****   hrtc->State = HAL_RTC_STATE_READY; 
 2090              		.loc 1 1349 0
 2091 003e 0123     		movs	r3, #1
 2092 0040 6377     		strb	r3, [r4, #29]
1350:Drivers/STM32F4xx_HAL_Driver/Src/stm32f4xx_hal_rtc_ex.c ****   
1351:Drivers/STM32F4xx_HAL_Driver/Src/stm32f4xx_hal_rtc_ex.c ****   /* Process Unlocked */ 
1352:Drivers/STM32F4xx_HAL_Driver/Src/stm32f4xx_hal_rtc_ex.c ****   __HAL_UNLOCK(hrtc);
 2093              		.loc 1 1352 0
 2094 0042 0020     		movs	r0, #0
 2095 0044 2077     		strb	r0, [r4, #28]
1353:Drivers/STM32F4xx_HAL_Driver/Src/stm32f4xx_hal_rtc_ex.c ****   
1354:Drivers/STM32F4xx_HAL_Driver/Src/stm32f4xx_hal_rtc_ex.c ****   return HAL_OK;
 2096              		.loc 1 1354 0
 2097 0046 BDE8F081 		pop	{r4, r5, r6, r7, r8, pc}
 2098              	.LVL162:
 2099              	.L164:
1321:Drivers/STM32F4xx_HAL_Driver/Src/stm32f4xx_hal_rtc_ex.c **** 
 2100              		.loc 1 1321 0
 2101 004a FFF7FEFF 		bl	HAL_GetTick
 2102              	.LVL163:
 2103 004e 8046     		mov	r8, r0
 2104              	.LVL164:
 2105              	.L160:
1324:Drivers/STM32F4xx_HAL_Driver/Src/stm32f4xx_hal_rtc_ex.c ****     {
 2106              		.loc 1 1324 0
 2107 0050 2168     		ldr	r1, [r4]
 2108 0052 C968     		ldr	r1, [r1, #12]
 2109 0054 11F4803F 		tst	r1, #65536
 2110 0058 EAD0     		beq	.L159
1326:Drivers/STM32F4xx_HAL_Driver/Src/stm32f4xx_hal_rtc_ex.c ****       {
 2111              		.loc 1 1326 0
 2112 005a FFF7FEFF 		bl	HAL_GetTick
 2113              	.LVL165:
 2114 005e A0EB0800 		sub	r0, r0, r8
 2115 0062 B0F57A7F 		cmp	r0, #1000
 2116 0066 F3D9     		bls	.L160
1329:Drivers/STM32F4xx_HAL_Driver/Src/stm32f4xx_hal_rtc_ex.c ****         
 2117              		.loc 1 1329 0
 2118 0068 2368     		ldr	r3, [r4]
 2119 006a FF22     		movs	r2, #255
 2120 006c 5A62     		str	r2, [r3, #36]
ARM GAS  C:\Users\svcgu\AppData\Local\Temp\ccZ0uYCg.s 			page 63


1332:Drivers/STM32F4xx_HAL_Driver/Src/stm32f4xx_hal_rtc_ex.c ****         
 2121              		.loc 1 1332 0
 2122 006e 0320     		movs	r0, #3
 2123 0070 6077     		strb	r0, [r4, #29]
1335:Drivers/STM32F4xx_HAL_Driver/Src/stm32f4xx_hal_rtc_ex.c ****         
 2124              		.loc 1 1335 0
 2125 0072 0023     		movs	r3, #0
 2126 0074 2377     		strb	r3, [r4, #28]
1337:Drivers/STM32F4xx_HAL_Driver/Src/stm32f4xx_hal_rtc_ex.c ****       }
 2127              		.loc 1 1337 0
 2128 0076 BDE8F081 		pop	{r4, r5, r6, r7, r8, pc}
 2129              	.LVL166:
 2130              	.L162:
1310:Drivers/STM32F4xx_HAL_Driver/Src/stm32f4xx_hal_rtc_ex.c ****   
 2131              		.loc 1 1310 0
 2132 007a 0220     		movs	r0, #2
 2133              	.LVL167:
1355:Drivers/STM32F4xx_HAL_Driver/Src/stm32f4xx_hal_rtc_ex.c **** }
 2134              		.loc 1 1355 0
 2135 007c BDE8F081 		pop	{r4, r5, r6, r7, r8, pc}
 2136              		.cfi_endproc
 2137              	.LFE149:
 2139              		.section	.text.HAL_RTCEx_SetSynchroShift,"ax",%progbits
 2140              		.align	1
 2141              		.global	HAL_RTCEx_SetSynchroShift
 2142              		.syntax unified
 2143              		.thumb
 2144              		.thumb_func
 2145              		.fpu fpv4-sp-d16
 2147              	HAL_RTCEx_SetSynchroShift:
 2148              	.LFB150:
1356:Drivers/STM32F4xx_HAL_Driver/Src/stm32f4xx_hal_rtc_ex.c **** 
1357:Drivers/STM32F4xx_HAL_Driver/Src/stm32f4xx_hal_rtc_ex.c **** /**
1358:Drivers/STM32F4xx_HAL_Driver/Src/stm32f4xx_hal_rtc_ex.c ****   * @brief  Configures the Synchronization Shift Control Settings.
1359:Drivers/STM32F4xx_HAL_Driver/Src/stm32f4xx_hal_rtc_ex.c ****   * @note   When REFCKON is set, firmware must not write to Shift control register. 
1360:Drivers/STM32F4xx_HAL_Driver/Src/stm32f4xx_hal_rtc_ex.c ****   * @param  hrtc pointer to a RTC_HandleTypeDef structure that contains
1361:Drivers/STM32F4xx_HAL_Driver/Src/stm32f4xx_hal_rtc_ex.c ****   *                the configuration information for RTC.    
1362:Drivers/STM32F4xx_HAL_Driver/Src/stm32f4xx_hal_rtc_ex.c ****   * @param  ShiftAdd1S Select to add or not 1 second to the time calendar.
1363:Drivers/STM32F4xx_HAL_Driver/Src/stm32f4xx_hal_rtc_ex.c ****   *          This parameter can be one of the following values :
1364:Drivers/STM32F4xx_HAL_Driver/Src/stm32f4xx_hal_rtc_ex.c ****   *             @arg RTC_SHIFTADD1S_SET: Add one second to the clock calendar. 
1365:Drivers/STM32F4xx_HAL_Driver/Src/stm32f4xx_hal_rtc_ex.c ****   *             @arg RTC_SHIFTADD1S_RESET: No effect.
1366:Drivers/STM32F4xx_HAL_Driver/Src/stm32f4xx_hal_rtc_ex.c ****   * @param  ShiftSubFS Select the number of Second Fractions to substitute.
1367:Drivers/STM32F4xx_HAL_Driver/Src/stm32f4xx_hal_rtc_ex.c ****   *          This parameter can be one any value from 0 to 0x7FFF.
1368:Drivers/STM32F4xx_HAL_Driver/Src/stm32f4xx_hal_rtc_ex.c ****   * @retval HAL status
1369:Drivers/STM32F4xx_HAL_Driver/Src/stm32f4xx_hal_rtc_ex.c ****   */
1370:Drivers/STM32F4xx_HAL_Driver/Src/stm32f4xx_hal_rtc_ex.c **** HAL_StatusTypeDef HAL_RTCEx_SetSynchroShift(RTC_HandleTypeDef* hrtc, uint32_t ShiftAdd1S, uint32_t 
1371:Drivers/STM32F4xx_HAL_Driver/Src/stm32f4xx_hal_rtc_ex.c **** {
 2149              		.loc 1 1371 0
 2150              		.cfi_startproc
 2151              		@ args = 0, pretend = 0, frame = 0
 2152              		@ frame_needed = 0, uses_anonymous_args = 0
 2153              	.LVL168:
 2154 0000 F8B5     		push	{r3, r4, r5, r6, r7, lr}
 2155              	.LCFI30:
 2156              		.cfi_def_cfa_offset 24
 2157              		.cfi_offset 3, -24
 2158              		.cfi_offset 4, -20
ARM GAS  C:\Users\svcgu\AppData\Local\Temp\ccZ0uYCg.s 			page 64


 2159              		.cfi_offset 5, -16
 2160              		.cfi_offset 6, -12
 2161              		.cfi_offset 7, -8
 2162              		.cfi_offset 14, -4
 2163              	.LVL169:
1372:Drivers/STM32F4xx_HAL_Driver/Src/stm32f4xx_hal_rtc_ex.c ****   uint32_t tickstart = 0U;
1373:Drivers/STM32F4xx_HAL_Driver/Src/stm32f4xx_hal_rtc_ex.c **** 
1374:Drivers/STM32F4xx_HAL_Driver/Src/stm32f4xx_hal_rtc_ex.c ****   /* Check the parameters */
1375:Drivers/STM32F4xx_HAL_Driver/Src/stm32f4xx_hal_rtc_ex.c ****   assert_param(IS_RTC_SHIFT_ADD1S(ShiftAdd1S));
1376:Drivers/STM32F4xx_HAL_Driver/Src/stm32f4xx_hal_rtc_ex.c ****   assert_param(IS_RTC_SHIFT_SUBFS(ShiftSubFS));
1377:Drivers/STM32F4xx_HAL_Driver/Src/stm32f4xx_hal_rtc_ex.c **** 
1378:Drivers/STM32F4xx_HAL_Driver/Src/stm32f4xx_hal_rtc_ex.c ****   /* Process Locked */ 
1379:Drivers/STM32F4xx_HAL_Driver/Src/stm32f4xx_hal_rtc_ex.c ****   __HAL_LOCK(hrtc);
 2164              		.loc 1 1379 0
 2165 0002 037F     		ldrb	r3, [r0, #28]	@ zero_extendqisi2
 2166 0004 012B     		cmp	r3, #1
 2167 0006 01D1     		bne	.L173
 2168 0008 0220     		movs	r0, #2
 2169              	.LVL170:
1380:Drivers/STM32F4xx_HAL_Driver/Src/stm32f4xx_hal_rtc_ex.c ****   
1381:Drivers/STM32F4xx_HAL_Driver/Src/stm32f4xx_hal_rtc_ex.c ****   hrtc->State = HAL_RTC_STATE_BUSY;
1382:Drivers/STM32F4xx_HAL_Driver/Src/stm32f4xx_hal_rtc_ex.c **** 
1383:Drivers/STM32F4xx_HAL_Driver/Src/stm32f4xx_hal_rtc_ex.c ****   /* Disable the write protection for RTC registers */
1384:Drivers/STM32F4xx_HAL_Driver/Src/stm32f4xx_hal_rtc_ex.c ****   __HAL_RTC_WRITEPROTECTION_DISABLE(hrtc);
1385:Drivers/STM32F4xx_HAL_Driver/Src/stm32f4xx_hal_rtc_ex.c **** 
1386:Drivers/STM32F4xx_HAL_Driver/Src/stm32f4xx_hal_rtc_ex.c ****   /* Get tick */
1387:Drivers/STM32F4xx_HAL_Driver/Src/stm32f4xx_hal_rtc_ex.c ****   tickstart = HAL_GetTick();
1388:Drivers/STM32F4xx_HAL_Driver/Src/stm32f4xx_hal_rtc_ex.c **** 
1389:Drivers/STM32F4xx_HAL_Driver/Src/stm32f4xx_hal_rtc_ex.c ****     /* Wait until the shift is completed*/
1390:Drivers/STM32F4xx_HAL_Driver/Src/stm32f4xx_hal_rtc_ex.c ****     while((hrtc->Instance->ISR & RTC_ISR_SHPF) != RESET)
1391:Drivers/STM32F4xx_HAL_Driver/Src/stm32f4xx_hal_rtc_ex.c ****     {
1392:Drivers/STM32F4xx_HAL_Driver/Src/stm32f4xx_hal_rtc_ex.c ****       if((HAL_GetTick() - tickstart ) > RTC_TIMEOUT_VALUE)
1393:Drivers/STM32F4xx_HAL_Driver/Src/stm32f4xx_hal_rtc_ex.c ****       {  
1394:Drivers/STM32F4xx_HAL_Driver/Src/stm32f4xx_hal_rtc_ex.c ****         /* Enable the write protection for RTC registers */
1395:Drivers/STM32F4xx_HAL_Driver/Src/stm32f4xx_hal_rtc_ex.c ****         __HAL_RTC_WRITEPROTECTION_ENABLE(hrtc);  
1396:Drivers/STM32F4xx_HAL_Driver/Src/stm32f4xx_hal_rtc_ex.c ****         
1397:Drivers/STM32F4xx_HAL_Driver/Src/stm32f4xx_hal_rtc_ex.c ****         hrtc->State = HAL_RTC_STATE_TIMEOUT;
1398:Drivers/STM32F4xx_HAL_Driver/Src/stm32f4xx_hal_rtc_ex.c ****         
1399:Drivers/STM32F4xx_HAL_Driver/Src/stm32f4xx_hal_rtc_ex.c ****         /* Process Unlocked */ 
1400:Drivers/STM32F4xx_HAL_Driver/Src/stm32f4xx_hal_rtc_ex.c ****         __HAL_UNLOCK(hrtc);
1401:Drivers/STM32F4xx_HAL_Driver/Src/stm32f4xx_hal_rtc_ex.c ****         
1402:Drivers/STM32F4xx_HAL_Driver/Src/stm32f4xx_hal_rtc_ex.c ****         return HAL_TIMEOUT;
1403:Drivers/STM32F4xx_HAL_Driver/Src/stm32f4xx_hal_rtc_ex.c ****       }
1404:Drivers/STM32F4xx_HAL_Driver/Src/stm32f4xx_hal_rtc_ex.c ****     }
1405:Drivers/STM32F4xx_HAL_Driver/Src/stm32f4xx_hal_rtc_ex.c ****   
1406:Drivers/STM32F4xx_HAL_Driver/Src/stm32f4xx_hal_rtc_ex.c ****     /* Check if the reference clock detection is disabled */
1407:Drivers/STM32F4xx_HAL_Driver/Src/stm32f4xx_hal_rtc_ex.c ****     if((hrtc->Instance->CR & RTC_CR_REFCKON) == RESET)
1408:Drivers/STM32F4xx_HAL_Driver/Src/stm32f4xx_hal_rtc_ex.c ****     {
1409:Drivers/STM32F4xx_HAL_Driver/Src/stm32f4xx_hal_rtc_ex.c ****       /* Configure the Shift settings */
1410:Drivers/STM32F4xx_HAL_Driver/Src/stm32f4xx_hal_rtc_ex.c ****       hrtc->Instance->SHIFTR = (uint32_t)(uint32_t)(ShiftSubFS) | (uint32_t)(ShiftAdd1S);
1411:Drivers/STM32F4xx_HAL_Driver/Src/stm32f4xx_hal_rtc_ex.c ****       
1412:Drivers/STM32F4xx_HAL_Driver/Src/stm32f4xx_hal_rtc_ex.c ****       /* If  RTC_CR_BYPSHAD bit = 0, wait for synchro else this check is not needed */
1413:Drivers/STM32F4xx_HAL_Driver/Src/stm32f4xx_hal_rtc_ex.c ****       if((hrtc->Instance->CR & RTC_CR_BYPSHAD) == RESET)
1414:Drivers/STM32F4xx_HAL_Driver/Src/stm32f4xx_hal_rtc_ex.c ****       {
1415:Drivers/STM32F4xx_HAL_Driver/Src/stm32f4xx_hal_rtc_ex.c ****         if(HAL_RTC_WaitForSynchro(hrtc) != HAL_OK)
1416:Drivers/STM32F4xx_HAL_Driver/Src/stm32f4xx_hal_rtc_ex.c ****         {
1417:Drivers/STM32F4xx_HAL_Driver/Src/stm32f4xx_hal_rtc_ex.c ****           /* Enable the write protection for RTC registers */
ARM GAS  C:\Users\svcgu\AppData\Local\Temp\ccZ0uYCg.s 			page 65


1418:Drivers/STM32F4xx_HAL_Driver/Src/stm32f4xx_hal_rtc_ex.c ****           __HAL_RTC_WRITEPROTECTION_ENABLE(hrtc);  
1419:Drivers/STM32F4xx_HAL_Driver/Src/stm32f4xx_hal_rtc_ex.c ****           
1420:Drivers/STM32F4xx_HAL_Driver/Src/stm32f4xx_hal_rtc_ex.c ****           hrtc->State = HAL_RTC_STATE_ERROR;
1421:Drivers/STM32F4xx_HAL_Driver/Src/stm32f4xx_hal_rtc_ex.c ****           
1422:Drivers/STM32F4xx_HAL_Driver/Src/stm32f4xx_hal_rtc_ex.c ****           /* Process Unlocked */ 
1423:Drivers/STM32F4xx_HAL_Driver/Src/stm32f4xx_hal_rtc_ex.c ****           __HAL_UNLOCK(hrtc);
1424:Drivers/STM32F4xx_HAL_Driver/Src/stm32f4xx_hal_rtc_ex.c ****           
1425:Drivers/STM32F4xx_HAL_Driver/Src/stm32f4xx_hal_rtc_ex.c ****           return HAL_ERROR;
1426:Drivers/STM32F4xx_HAL_Driver/Src/stm32f4xx_hal_rtc_ex.c ****         }
1427:Drivers/STM32F4xx_HAL_Driver/Src/stm32f4xx_hal_rtc_ex.c ****       }
1428:Drivers/STM32F4xx_HAL_Driver/Src/stm32f4xx_hal_rtc_ex.c ****     }
1429:Drivers/STM32F4xx_HAL_Driver/Src/stm32f4xx_hal_rtc_ex.c ****     else
1430:Drivers/STM32F4xx_HAL_Driver/Src/stm32f4xx_hal_rtc_ex.c ****     {
1431:Drivers/STM32F4xx_HAL_Driver/Src/stm32f4xx_hal_rtc_ex.c ****       /* Enable the write protection for RTC registers */
1432:Drivers/STM32F4xx_HAL_Driver/Src/stm32f4xx_hal_rtc_ex.c ****       __HAL_RTC_WRITEPROTECTION_ENABLE(hrtc);
1433:Drivers/STM32F4xx_HAL_Driver/Src/stm32f4xx_hal_rtc_ex.c ****       
1434:Drivers/STM32F4xx_HAL_Driver/Src/stm32f4xx_hal_rtc_ex.c ****       /* Change RTC state */
1435:Drivers/STM32F4xx_HAL_Driver/Src/stm32f4xx_hal_rtc_ex.c ****       hrtc->State = HAL_RTC_STATE_ERROR; 
1436:Drivers/STM32F4xx_HAL_Driver/Src/stm32f4xx_hal_rtc_ex.c ****       
1437:Drivers/STM32F4xx_HAL_Driver/Src/stm32f4xx_hal_rtc_ex.c ****       /* Process Unlocked */ 
1438:Drivers/STM32F4xx_HAL_Driver/Src/stm32f4xx_hal_rtc_ex.c ****       __HAL_UNLOCK(hrtc);
1439:Drivers/STM32F4xx_HAL_Driver/Src/stm32f4xx_hal_rtc_ex.c ****       
1440:Drivers/STM32F4xx_HAL_Driver/Src/stm32f4xx_hal_rtc_ex.c ****       return HAL_ERROR;
1441:Drivers/STM32F4xx_HAL_Driver/Src/stm32f4xx_hal_rtc_ex.c ****     }
1442:Drivers/STM32F4xx_HAL_Driver/Src/stm32f4xx_hal_rtc_ex.c ****   
1443:Drivers/STM32F4xx_HAL_Driver/Src/stm32f4xx_hal_rtc_ex.c ****   /* Enable the write protection for RTC registers */
1444:Drivers/STM32F4xx_HAL_Driver/Src/stm32f4xx_hal_rtc_ex.c ****   __HAL_RTC_WRITEPROTECTION_ENABLE(hrtc);
1445:Drivers/STM32F4xx_HAL_Driver/Src/stm32f4xx_hal_rtc_ex.c ****   
1446:Drivers/STM32F4xx_HAL_Driver/Src/stm32f4xx_hal_rtc_ex.c ****   /* Change RTC state */
1447:Drivers/STM32F4xx_HAL_Driver/Src/stm32f4xx_hal_rtc_ex.c ****   hrtc->State = HAL_RTC_STATE_READY; 
1448:Drivers/STM32F4xx_HAL_Driver/Src/stm32f4xx_hal_rtc_ex.c ****   
1449:Drivers/STM32F4xx_HAL_Driver/Src/stm32f4xx_hal_rtc_ex.c ****   /* Process Unlocked */ 
1450:Drivers/STM32F4xx_HAL_Driver/Src/stm32f4xx_hal_rtc_ex.c ****   __HAL_UNLOCK(hrtc);
1451:Drivers/STM32F4xx_HAL_Driver/Src/stm32f4xx_hal_rtc_ex.c ****   
1452:Drivers/STM32F4xx_HAL_Driver/Src/stm32f4xx_hal_rtc_ex.c ****   return HAL_OK;
1453:Drivers/STM32F4xx_HAL_Driver/Src/stm32f4xx_hal_rtc_ex.c **** }
 2170              		.loc 1 1453 0
 2171 000a F8BD     		pop	{r3, r4, r5, r6, r7, pc}
 2172              	.LVL171:
 2173              	.L173:
 2174 000c 1646     		mov	r6, r2
 2175 000e 0F46     		mov	r7, r1
 2176 0010 0446     		mov	r4, r0
1379:Drivers/STM32F4xx_HAL_Driver/Src/stm32f4xx_hal_rtc_ex.c ****   
 2177              		.loc 1 1379 0 discriminator 2
 2178 0012 0123     		movs	r3, #1
 2179 0014 0377     		strb	r3, [r0, #28]
1381:Drivers/STM32F4xx_HAL_Driver/Src/stm32f4xx_hal_rtc_ex.c **** 
 2180              		.loc 1 1381 0 discriminator 2
 2181 0016 0223     		movs	r3, #2
 2182 0018 4377     		strb	r3, [r0, #29]
1384:Drivers/STM32F4xx_HAL_Driver/Src/stm32f4xx_hal_rtc_ex.c **** 
 2183              		.loc 1 1384 0 discriminator 2
 2184 001a 0368     		ldr	r3, [r0]
 2185 001c CA22     		movs	r2, #202
 2186              	.LVL172:
 2187 001e 5A62     		str	r2, [r3, #36]
ARM GAS  C:\Users\svcgu\AppData\Local\Temp\ccZ0uYCg.s 			page 66


 2188 0020 0368     		ldr	r3, [r0]
 2189 0022 5322     		movs	r2, #83
 2190 0024 5A62     		str	r2, [r3, #36]
1387:Drivers/STM32F4xx_HAL_Driver/Src/stm32f4xx_hal_rtc_ex.c **** 
 2191              		.loc 1 1387 0 discriminator 2
 2192 0026 FFF7FEFF 		bl	HAL_GetTick
 2193              	.LVL173:
 2194 002a 0546     		mov	r5, r0
 2195              	.LVL174:
 2196              	.L167:
1390:Drivers/STM32F4xx_HAL_Driver/Src/stm32f4xx_hal_rtc_ex.c ****     {
 2197              		.loc 1 1390 0
 2198 002c 2368     		ldr	r3, [r4]
 2199 002e D868     		ldr	r0, [r3, #12]
 2200 0030 10F0080F 		tst	r0, #8
 2201 0034 0DD0     		beq	.L174
1392:Drivers/STM32F4xx_HAL_Driver/Src/stm32f4xx_hal_rtc_ex.c ****       {  
 2202              		.loc 1 1392 0
 2203 0036 FFF7FEFF 		bl	HAL_GetTick
 2204              	.LVL175:
 2205 003a 401B     		subs	r0, r0, r5
 2206 003c B0F57A7F 		cmp	r0, #1000
 2207 0040 F4D9     		bls	.L167
1395:Drivers/STM32F4xx_HAL_Driver/Src/stm32f4xx_hal_rtc_ex.c ****         
 2208              		.loc 1 1395 0
 2209 0042 2368     		ldr	r3, [r4]
 2210 0044 FF22     		movs	r2, #255
 2211 0046 5A62     		str	r2, [r3, #36]
1397:Drivers/STM32F4xx_HAL_Driver/Src/stm32f4xx_hal_rtc_ex.c ****         
 2212              		.loc 1 1397 0
 2213 0048 0320     		movs	r0, #3
 2214 004a 6077     		strb	r0, [r4, #29]
1400:Drivers/STM32F4xx_HAL_Driver/Src/stm32f4xx_hal_rtc_ex.c ****         
 2215              		.loc 1 1400 0
 2216 004c 0023     		movs	r3, #0
 2217 004e 2377     		strb	r3, [r4, #28]
1402:Drivers/STM32F4xx_HAL_Driver/Src/stm32f4xx_hal_rtc_ex.c ****       }
 2218              		.loc 1 1402 0
 2219 0050 F8BD     		pop	{r3, r4, r5, r6, r7, pc}
 2220              	.LVL176:
 2221              	.L174:
1407:Drivers/STM32F4xx_HAL_Driver/Src/stm32f4xx_hal_rtc_ex.c ****     {
 2222              		.loc 1 1407 0
 2223 0052 9A68     		ldr	r2, [r3, #8]
 2224 0054 12F0100F 		tst	r2, #16
 2225 0058 1CD1     		bne	.L169
1410:Drivers/STM32F4xx_HAL_Driver/Src/stm32f4xx_hal_rtc_ex.c ****       
 2226              		.loc 1 1410 0
 2227 005a 3E43     		orrs	r6, r6, r7
 2228              	.LVL177:
 2229 005c DE62     		str	r6, [r3, #44]
1413:Drivers/STM32F4xx_HAL_Driver/Src/stm32f4xx_hal_rtc_ex.c ****       {
 2230              		.loc 1 1413 0
 2231 005e 2368     		ldr	r3, [r4]
 2232 0060 9B68     		ldr	r3, [r3, #8]
 2233 0062 13F0200F 		tst	r3, #32
 2234 0066 07D0     		beq	.L175
ARM GAS  C:\Users\svcgu\AppData\Local\Temp\ccZ0uYCg.s 			page 67


 2235              	.L170:
1444:Drivers/STM32F4xx_HAL_Driver/Src/stm32f4xx_hal_rtc_ex.c ****   
 2236              		.loc 1 1444 0
 2237 0068 2368     		ldr	r3, [r4]
 2238 006a FF22     		movs	r2, #255
 2239 006c 5A62     		str	r2, [r3, #36]
1447:Drivers/STM32F4xx_HAL_Driver/Src/stm32f4xx_hal_rtc_ex.c ****   
 2240              		.loc 1 1447 0
 2241 006e 0123     		movs	r3, #1
 2242 0070 6377     		strb	r3, [r4, #29]
1450:Drivers/STM32F4xx_HAL_Driver/Src/stm32f4xx_hal_rtc_ex.c ****   
 2243              		.loc 1 1450 0
 2244 0072 0020     		movs	r0, #0
 2245 0074 2077     		strb	r0, [r4, #28]
1452:Drivers/STM32F4xx_HAL_Driver/Src/stm32f4xx_hal_rtc_ex.c **** }
 2246              		.loc 1 1452 0
 2247 0076 F8BD     		pop	{r3, r4, r5, r6, r7, pc}
 2248              	.LVL178:
 2249              	.L175:
1415:Drivers/STM32F4xx_HAL_Driver/Src/stm32f4xx_hal_rtc_ex.c ****         {
 2250              		.loc 1 1415 0
 2251 0078 2046     		mov	r0, r4
 2252 007a FFF7FEFF 		bl	HAL_RTC_WaitForSynchro
 2253              	.LVL179:
 2254 007e 0028     		cmp	r0, #0
 2255 0080 F2D0     		beq	.L170
1418:Drivers/STM32F4xx_HAL_Driver/Src/stm32f4xx_hal_rtc_ex.c ****           
 2256              		.loc 1 1418 0
 2257 0082 2368     		ldr	r3, [r4]
 2258 0084 FF22     		movs	r2, #255
 2259 0086 5A62     		str	r2, [r3, #36]
1420:Drivers/STM32F4xx_HAL_Driver/Src/stm32f4xx_hal_rtc_ex.c ****           
 2260              		.loc 1 1420 0
 2261 0088 0423     		movs	r3, #4
 2262 008a 6377     		strb	r3, [r4, #29]
1423:Drivers/STM32F4xx_HAL_Driver/Src/stm32f4xx_hal_rtc_ex.c ****           
 2263              		.loc 1 1423 0
 2264 008c 0023     		movs	r3, #0
 2265 008e 2377     		strb	r3, [r4, #28]
1425:Drivers/STM32F4xx_HAL_Driver/Src/stm32f4xx_hal_rtc_ex.c ****         }
 2266              		.loc 1 1425 0
 2267 0090 0120     		movs	r0, #1
 2268 0092 F8BD     		pop	{r3, r4, r5, r6, r7, pc}
 2269              	.LVL180:
 2270              	.L169:
1432:Drivers/STM32F4xx_HAL_Driver/Src/stm32f4xx_hal_rtc_ex.c ****       
 2271              		.loc 1 1432 0
 2272 0094 FF22     		movs	r2, #255
 2273 0096 5A62     		str	r2, [r3, #36]
1435:Drivers/STM32F4xx_HAL_Driver/Src/stm32f4xx_hal_rtc_ex.c ****       
 2274              		.loc 1 1435 0
 2275 0098 0423     		movs	r3, #4
 2276 009a 6377     		strb	r3, [r4, #29]
1438:Drivers/STM32F4xx_HAL_Driver/Src/stm32f4xx_hal_rtc_ex.c ****       
 2277              		.loc 1 1438 0
 2278 009c 0023     		movs	r3, #0
 2279 009e 2377     		strb	r3, [r4, #28]
ARM GAS  C:\Users\svcgu\AppData\Local\Temp\ccZ0uYCg.s 			page 68


1440:Drivers/STM32F4xx_HAL_Driver/Src/stm32f4xx_hal_rtc_ex.c ****     }
 2280              		.loc 1 1440 0
 2281 00a0 0120     		movs	r0, #1
 2282 00a2 F8BD     		pop	{r3, r4, r5, r6, r7, pc}
 2283              		.cfi_endproc
 2284              	.LFE150:
 2286              		.section	.text.HAL_RTCEx_SetCalibrationOutPut,"ax",%progbits
 2287              		.align	1
 2288              		.global	HAL_RTCEx_SetCalibrationOutPut
 2289              		.syntax unified
 2290              		.thumb
 2291              		.thumb_func
 2292              		.fpu fpv4-sp-d16
 2294              	HAL_RTCEx_SetCalibrationOutPut:
 2295              	.LFB151:
1454:Drivers/STM32F4xx_HAL_Driver/Src/stm32f4xx_hal_rtc_ex.c **** 
1455:Drivers/STM32F4xx_HAL_Driver/Src/stm32f4xx_hal_rtc_ex.c **** /**
1456:Drivers/STM32F4xx_HAL_Driver/Src/stm32f4xx_hal_rtc_ex.c ****   * @brief  Configures the Calibration Pinout (RTC_CALIB) Selection (1Hz or 512Hz).
1457:Drivers/STM32F4xx_HAL_Driver/Src/stm32f4xx_hal_rtc_ex.c ****   * @param  hrtc pointer to a RTC_HandleTypeDef structure that contains
1458:Drivers/STM32F4xx_HAL_Driver/Src/stm32f4xx_hal_rtc_ex.c ****   *                the configuration information for RTC.    
1459:Drivers/STM32F4xx_HAL_Driver/Src/stm32f4xx_hal_rtc_ex.c ****   * @param  CalibOutput Select the Calibration output Selection .
1460:Drivers/STM32F4xx_HAL_Driver/Src/stm32f4xx_hal_rtc_ex.c ****   *          This parameter can be one of the following values:
1461:Drivers/STM32F4xx_HAL_Driver/Src/stm32f4xx_hal_rtc_ex.c ****   *             @arg RTC_CALIBOUTPUT_512HZ: A signal has a regular waveform at 512Hz. 
1462:Drivers/STM32F4xx_HAL_Driver/Src/stm32f4xx_hal_rtc_ex.c ****   *             @arg RTC_CALIBOUTPUT_1HZ: A signal has a regular waveform at 1Hz.
1463:Drivers/STM32F4xx_HAL_Driver/Src/stm32f4xx_hal_rtc_ex.c ****   * @retval HAL status
1464:Drivers/STM32F4xx_HAL_Driver/Src/stm32f4xx_hal_rtc_ex.c ****   */
1465:Drivers/STM32F4xx_HAL_Driver/Src/stm32f4xx_hal_rtc_ex.c **** HAL_StatusTypeDef HAL_RTCEx_SetCalibrationOutPut(RTC_HandleTypeDef* hrtc, uint32_t CalibOutput)
1466:Drivers/STM32F4xx_HAL_Driver/Src/stm32f4xx_hal_rtc_ex.c **** {
 2296              		.loc 1 1466 0
 2297              		.cfi_startproc
 2298              		@ args = 0, pretend = 0, frame = 0
 2299              		@ frame_needed = 0, uses_anonymous_args = 0
 2300              		@ link register save eliminated.
 2301              	.LVL181:
1467:Drivers/STM32F4xx_HAL_Driver/Src/stm32f4xx_hal_rtc_ex.c ****   /* Check the parameters */
1468:Drivers/STM32F4xx_HAL_Driver/Src/stm32f4xx_hal_rtc_ex.c ****   assert_param(IS_RTC_CALIB_OUTPUT(CalibOutput));
1469:Drivers/STM32F4xx_HAL_Driver/Src/stm32f4xx_hal_rtc_ex.c ****   
1470:Drivers/STM32F4xx_HAL_Driver/Src/stm32f4xx_hal_rtc_ex.c ****   /* Process Locked */ 
1471:Drivers/STM32F4xx_HAL_Driver/Src/stm32f4xx_hal_rtc_ex.c ****   __HAL_LOCK(hrtc);
 2302              		.loc 1 1471 0
 2303 0000 037F     		ldrb	r3, [r0, #28]	@ zero_extendqisi2
 2304 0002 012B     		cmp	r3, #1
 2305 0004 22D0     		beq	.L178
1466:Drivers/STM32F4xx_HAL_Driver/Src/stm32f4xx_hal_rtc_ex.c ****   /* Check the parameters */
 2306              		.loc 1 1466 0 discriminator 2
 2307 0006 10B4     		push	{r4}
 2308              	.LCFI31:
 2309              		.cfi_def_cfa_offset 4
 2310              		.cfi_offset 4, -4
 2311              		.loc 1 1471 0 discriminator 2
 2312 0008 0122     		movs	r2, #1
 2313 000a 0277     		strb	r2, [r0, #28]
1472:Drivers/STM32F4xx_HAL_Driver/Src/stm32f4xx_hal_rtc_ex.c ****   
1473:Drivers/STM32F4xx_HAL_Driver/Src/stm32f4xx_hal_rtc_ex.c ****   hrtc->State = HAL_RTC_STATE_BUSY;
 2314              		.loc 1 1473 0 discriminator 2
 2315 000c 0223     		movs	r3, #2
 2316 000e 4377     		strb	r3, [r0, #29]
ARM GAS  C:\Users\svcgu\AppData\Local\Temp\ccZ0uYCg.s 			page 69


1474:Drivers/STM32F4xx_HAL_Driver/Src/stm32f4xx_hal_rtc_ex.c **** 
1475:Drivers/STM32F4xx_HAL_Driver/Src/stm32f4xx_hal_rtc_ex.c ****   /* Disable the write protection for RTC registers */
1476:Drivers/STM32F4xx_HAL_Driver/Src/stm32f4xx_hal_rtc_ex.c ****   __HAL_RTC_WRITEPROTECTION_DISABLE(hrtc);
 2317              		.loc 1 1476 0 discriminator 2
 2318 0010 0368     		ldr	r3, [r0]
 2319 0012 CA24     		movs	r4, #202
 2320 0014 5C62     		str	r4, [r3, #36]
 2321 0016 0368     		ldr	r3, [r0]
 2322 0018 5324     		movs	r4, #83
 2323 001a 5C62     		str	r4, [r3, #36]
1477:Drivers/STM32F4xx_HAL_Driver/Src/stm32f4xx_hal_rtc_ex.c ****   
1478:Drivers/STM32F4xx_HAL_Driver/Src/stm32f4xx_hal_rtc_ex.c ****   /* Clear flags before config */
1479:Drivers/STM32F4xx_HAL_Driver/Src/stm32f4xx_hal_rtc_ex.c ****   hrtc->Instance->CR &= (uint32_t)~RTC_CR_COSEL;
 2324              		.loc 1 1479 0 discriminator 2
 2325 001c 0468     		ldr	r4, [r0]
 2326 001e A368     		ldr	r3, [r4, #8]
 2327 0020 23F40023 		bic	r3, r3, #524288
 2328 0024 A360     		str	r3, [r4, #8]
1480:Drivers/STM32F4xx_HAL_Driver/Src/stm32f4xx_hal_rtc_ex.c ****   
1481:Drivers/STM32F4xx_HAL_Driver/Src/stm32f4xx_hal_rtc_ex.c ****   /* Configure the RTC_CR register */
1482:Drivers/STM32F4xx_HAL_Driver/Src/stm32f4xx_hal_rtc_ex.c ****   hrtc->Instance->CR |= (uint32_t)CalibOutput;
 2329              		.loc 1 1482 0 discriminator 2
 2330 0026 0468     		ldr	r4, [r0]
 2331 0028 A368     		ldr	r3, [r4, #8]
 2332 002a 1943     		orrs	r1, r1, r3
 2333              	.LVL182:
 2334 002c A160     		str	r1, [r4, #8]
1483:Drivers/STM32F4xx_HAL_Driver/Src/stm32f4xx_hal_rtc_ex.c ****   
1484:Drivers/STM32F4xx_HAL_Driver/Src/stm32f4xx_hal_rtc_ex.c ****   __HAL_RTC_CALIBRATION_OUTPUT_ENABLE(hrtc);
 2335              		.loc 1 1484 0 discriminator 2
 2336 002e 0168     		ldr	r1, [r0]
 2337 0030 8B68     		ldr	r3, [r1, #8]
 2338 0032 43F40003 		orr	r3, r3, #8388608
 2339 0036 8B60     		str	r3, [r1, #8]
1485:Drivers/STM32F4xx_HAL_Driver/Src/stm32f4xx_hal_rtc_ex.c ****   
1486:Drivers/STM32F4xx_HAL_Driver/Src/stm32f4xx_hal_rtc_ex.c ****   /* Enable the write protection for RTC registers */
1487:Drivers/STM32F4xx_HAL_Driver/Src/stm32f4xx_hal_rtc_ex.c ****   __HAL_RTC_WRITEPROTECTION_ENABLE(hrtc);
 2340              		.loc 1 1487 0 discriminator 2
 2341 0038 0368     		ldr	r3, [r0]
 2342 003a FF21     		movs	r1, #255
 2343 003c 5962     		str	r1, [r3, #36]
1488:Drivers/STM32F4xx_HAL_Driver/Src/stm32f4xx_hal_rtc_ex.c ****   
1489:Drivers/STM32F4xx_HAL_Driver/Src/stm32f4xx_hal_rtc_ex.c ****   /* Change RTC state */
1490:Drivers/STM32F4xx_HAL_Driver/Src/stm32f4xx_hal_rtc_ex.c ****   hrtc->State = HAL_RTC_STATE_READY; 
 2344              		.loc 1 1490 0 discriminator 2
 2345 003e 4277     		strb	r2, [r0, #29]
1491:Drivers/STM32F4xx_HAL_Driver/Src/stm32f4xx_hal_rtc_ex.c ****   
1492:Drivers/STM32F4xx_HAL_Driver/Src/stm32f4xx_hal_rtc_ex.c ****   /* Process Unlocked */ 
1493:Drivers/STM32F4xx_HAL_Driver/Src/stm32f4xx_hal_rtc_ex.c ****   __HAL_UNLOCK(hrtc);
 2346              		.loc 1 1493 0 discriminator 2
 2347 0040 0023     		movs	r3, #0
 2348 0042 0377     		strb	r3, [r0, #28]
1494:Drivers/STM32F4xx_HAL_Driver/Src/stm32f4xx_hal_rtc_ex.c ****   
1495:Drivers/STM32F4xx_HAL_Driver/Src/stm32f4xx_hal_rtc_ex.c ****   return HAL_OK;
