ARM GAS  C:\Users\svcgu\AppData\Local\Temp\ccJVql4f.s 			page 1


   1              		.cpu cortex-m4
   2              		.eabi_attribute 27, 1
   3              		.eabi_attribute 28, 1
   4              		.eabi_attribute 20, 1
   5              		.eabi_attribute 21, 1
   6              		.eabi_attribute 23, 3
   7              		.eabi_attribute 24, 1
   8              		.eabi_attribute 25, 1
   9              		.eabi_attribute 26, 1
  10              		.eabi_attribute 30, 1
  11              		.eabi_attribute 34, 1
  12              		.eabi_attribute 18, 4
  13              		.file	"tim.c"
  14              		.text
  15              	.Ltext0:
  16              		.cfi_sections	.debug_frame
  17              		.section	.text.MX_TIM6_Init,"ax",%progbits
  18              		.align	1
  19              		.global	MX_TIM6_Init
  20              		.syntax unified
  21              		.thumb
  22              		.thumb_func
  23              		.fpu fpv4-sp-d16
  25              	MX_TIM6_Init:
  26              	.LFB124:
  27              		.file 1 "Src/tim.c"
   1:Src/tim.c     **** /**
   2:Src/tim.c     ****   ******************************************************************************
   3:Src/tim.c     ****   * File Name          : TIM.c
   4:Src/tim.c     ****   * Description        : This file provides code for the configuration
   5:Src/tim.c     ****   *                      of the TIM instances.
   6:Src/tim.c     ****   ******************************************************************************
   7:Src/tim.c     ****   * This notice applies to any and all portions of this file
   8:Src/tim.c     ****   * that are not between comment pairs USER CODE BEGIN and
   9:Src/tim.c     ****   * USER CODE END. Other portions of this file, whether 
  10:Src/tim.c     ****   * inserted by the user or by software development tools
  11:Src/tim.c     ****   * are owned by their respective copyright owners.
  12:Src/tim.c     ****   *
  13:Src/tim.c     ****   * Copyright (c) 2018 STMicroelectronics International N.V. 
  14:Src/tim.c     ****   * All rights reserved.
  15:Src/tim.c     ****   *
  16:Src/tim.c     ****   * Redistribution and use in source and binary forms, with or without 
  17:Src/tim.c     ****   * modification, are permitted, provided that the following conditions are met:
  18:Src/tim.c     ****   *
  19:Src/tim.c     ****   * 1. Redistribution of source code must retain the above copyright notice, 
  20:Src/tim.c     ****   *    this list of conditions and the following disclaimer.
  21:Src/tim.c     ****   * 2. Redistributions in binary form must reproduce the above copyright notice,
  22:Src/tim.c     ****   *    this list of conditions and the following disclaimer in the documentation
  23:Src/tim.c     ****   *    and/or other materials provided with the distribution.
  24:Src/tim.c     ****   * 3. Neither the name of STMicroelectronics nor the names of other 
  25:Src/tim.c     ****   *    contributors to this software may be used to endorse or promote products 
  26:Src/tim.c     ****   *    derived from this software without specific written permission.
  27:Src/tim.c     ****   * 4. This software, including modifications and/or derivative works of this 
  28:Src/tim.c     ****   *    software, must execute solely and exclusively on microcontroller or
  29:Src/tim.c     ****   *    microprocessor devices manufactured by or for STMicroelectronics.
  30:Src/tim.c     ****   * 5. Redistribution and use of this software other than as permitted under 
  31:Src/tim.c     ****   *    this license is void and will automatically terminate your rights under 
ARM GAS  C:\Users\svcgu\AppData\Local\Temp\ccJVql4f.s 			page 2


  32:Src/tim.c     ****   *    this license. 
  33:Src/tim.c     ****   *
  34:Src/tim.c     ****   * THIS SOFTWARE IS PROVIDED BY STMICROELECTRONICS AND CONTRIBUTORS "AS IS" 
  35:Src/tim.c     ****   * AND ANY EXPRESS, IMPLIED OR STATUTORY WARRANTIES, INCLUDING, BUT NOT 
  36:Src/tim.c     ****   * LIMITED TO, THE IMPLIED WARRANTIES OF MERCHANTABILITY, FITNESS FOR A 
  37:Src/tim.c     ****   * PARTICULAR PURPOSE AND NON-INFRINGEMENT OF THIRD PARTY INTELLECTUAL PROPERTY
  38:Src/tim.c     ****   * RIGHTS ARE DISCLAIMED TO THE FULLEST EXTENT PERMITTED BY LAW. IN NO EVENT 
  39:Src/tim.c     ****   * SHALL STMICROELECTRONICS OR CONTRIBUTORS BE LIABLE FOR ANY DIRECT, INDIRECT,
  40:Src/tim.c     ****   * INCIDENTAL, SPECIAL, EXEMPLARY, OR CONSEQUENTIAL DAMAGES (INCLUDING, BUT NOT
  41:Src/tim.c     ****   * LIMITED TO, PROCUREMENT OF SUBSTITUTE GOODS OR SERVICES; LOSS OF USE, DATA, 
  42:Src/tim.c     ****   * OR PROFITS; OR BUSINESS INTERRUPTION) HOWEVER CAUSED AND ON ANY THEORY OF 
  43:Src/tim.c     ****   * LIABILITY, WHETHER IN CONTRACT, STRICT LIABILITY, OR TORT (INCLUDING 
  44:Src/tim.c     ****   * NEGLIGENCE OR OTHERWISE) ARISING IN ANY WAY OUT OF THE USE OF THIS SOFTWARE,
  45:Src/tim.c     ****   * EVEN IF ADVISED OF THE POSSIBILITY OF SUCH DAMAGE.
  46:Src/tim.c     ****   *
  47:Src/tim.c     ****   ******************************************************************************
  48:Src/tim.c     ****   */
  49:Src/tim.c     **** 
  50:Src/tim.c     **** /* Includes ------------------------------------------------------------------*/
  51:Src/tim.c     **** #include "tim.h"
  52:Src/tim.c     **** 
  53:Src/tim.c     **** /* USER CODE BEGIN 0 */
  54:Src/tim.c     **** 
  55:Src/tim.c     **** /* USER CODE END 0 */
  56:Src/tim.c     **** 
  57:Src/tim.c     **** TIM_HandleTypeDef htim6;
  58:Src/tim.c     **** TIM_HandleTypeDef htim7;
  59:Src/tim.c     **** 
  60:Src/tim.c     **** /* TIM6 init function */
  61:Src/tim.c     **** void MX_TIM6_Init(void)
  62:Src/tim.c     **** {
  28              		.loc 1 62 0
  29              		.cfi_startproc
  30              		@ args = 0, pretend = 0, frame = 8
  31              		@ frame_needed = 0, uses_anonymous_args = 0
  32 0000 00B5     		push	{lr}
  33              	.LCFI0:
  34              		.cfi_def_cfa_offset 4
  35              		.cfi_offset 14, -4
  36 0002 83B0     		sub	sp, sp, #12
  37              	.LCFI1:
  38              		.cfi_def_cfa_offset 16
  63:Src/tim.c     ****   TIM_MasterConfigTypeDef sMasterConfig;
  64:Src/tim.c     **** 
  65:Src/tim.c     ****   htim6.Instance = TIM6;
  39              		.loc 1 65 0
  40 0004 1148     		ldr	r0, .L7
  41 0006 124B     		ldr	r3, .L7+4
  42 0008 0360     		str	r3, [r0]
  66:Src/tim.c     ****   htim6.Init.Prescaler = 15999;
  43              		.loc 1 66 0
  44 000a 43F67F63 		movw	r3, #15999
  45 000e 4360     		str	r3, [r0, #4]
  67:Src/tim.c     ****   htim6.Init.CounterMode = TIM_COUNTERMODE_UP;
  46              		.loc 1 67 0
  47 0010 0023     		movs	r3, #0
  48 0012 8360     		str	r3, [r0, #8]
ARM GAS  C:\Users\svcgu\AppData\Local\Temp\ccJVql4f.s 			page 3


  68:Src/tim.c     ****   htim6.Init.Period = 999;
  49              		.loc 1 68 0
  50 0014 40F2E733 		movw	r3, #999
  51 0018 C360     		str	r3, [r0, #12]
  69:Src/tim.c     ****   if (HAL_TIM_Base_Init(&htim6) != HAL_OK)
  52              		.loc 1 69 0
  53 001a FFF7FEFF 		bl	HAL_TIM_Base_Init
  54              	.LVL0:
  55 001e 50B9     		cbnz	r0, .L5
  56              	.L2:
  70:Src/tim.c     ****   {
  71:Src/tim.c     ****     _Error_Handler(__FILE__, __LINE__);
  72:Src/tim.c     ****   }
  73:Src/tim.c     **** 
  74:Src/tim.c     ****   sMasterConfig.MasterOutputTrigger = TIM_TRGO_RESET;
  57              		.loc 1 74 0
  58 0020 0023     		movs	r3, #0
  59 0022 0093     		str	r3, [sp]
  75:Src/tim.c     ****   sMasterConfig.MasterSlaveMode = TIM_MASTERSLAVEMODE_DISABLE;
  60              		.loc 1 75 0
  61 0024 0193     		str	r3, [sp, #4]
  76:Src/tim.c     ****   if (HAL_TIMEx_MasterConfigSynchronization(&htim6, &sMasterConfig) != HAL_OK)
  62              		.loc 1 76 0
  63 0026 6946     		mov	r1, sp
  64 0028 0848     		ldr	r0, .L7
  65 002a FFF7FEFF 		bl	HAL_TIMEx_MasterConfigSynchronization
  66              	.LVL1:
  67 002e 38B9     		cbnz	r0, .L6
  68              	.L1:
  77:Src/tim.c     ****   {
  78:Src/tim.c     ****     _Error_Handler(__FILE__, __LINE__);
  79:Src/tim.c     ****   }
  80:Src/tim.c     **** 
  81:Src/tim.c     **** }
  69              		.loc 1 81 0
  70 0030 03B0     		add	sp, sp, #12
  71              	.LCFI2:
  72              		.cfi_remember_state
  73              		.cfi_def_cfa_offset 4
  74              		@ sp needed
  75 0032 5DF804FB 		ldr	pc, [sp], #4
  76              	.L5:
  77              	.LCFI3:
  78              		.cfi_restore_state
  71:Src/tim.c     ****   }
  79              		.loc 1 71 0
  80 0036 4721     		movs	r1, #71
  81 0038 0648     		ldr	r0, .L7+8
  82 003a FFF7FEFF 		bl	_Error_Handler
  83              	.LVL2:
  84 003e EFE7     		b	.L2
  85              	.L6:
  78:Src/tim.c     ****   }
  86              		.loc 1 78 0
  87 0040 4E21     		movs	r1, #78
  88 0042 0448     		ldr	r0, .L7+8
  89 0044 FFF7FEFF 		bl	_Error_Handler
ARM GAS  C:\Users\svcgu\AppData\Local\Temp\ccJVql4f.s 			page 4


  90              	.LVL3:
  91              		.loc 1 81 0
  92 0048 F2E7     		b	.L1
  93              	.L8:
  94 004a 00BF     		.align	2
  95              	.L7:
  96 004c 00000000 		.word	htim6
  97 0050 00100040 		.word	1073745920
  98 0054 00000000 		.word	.LC0
  99              		.cfi_endproc
 100              	.LFE124:
 102              		.section	.text.MX_TIM7_Init,"ax",%progbits
 103              		.align	1
 104              		.global	MX_TIM7_Init
 105              		.syntax unified
 106              		.thumb
 107              		.thumb_func
 108              		.fpu fpv4-sp-d16
 110              	MX_TIM7_Init:
 111              	.LFB125:
  82:Src/tim.c     **** /* TIM7 init function */
  83:Src/tim.c     **** void MX_TIM7_Init(void)
  84:Src/tim.c     **** {
 112              		.loc 1 84 0
 113              		.cfi_startproc
 114              		@ args = 0, pretend = 0, frame = 8
 115              		@ frame_needed = 0, uses_anonymous_args = 0
 116 0000 00B5     		push	{lr}
 117              	.LCFI4:
 118              		.cfi_def_cfa_offset 4
 119              		.cfi_offset 14, -4
 120 0002 83B0     		sub	sp, sp, #12
 121              	.LCFI5:
 122              		.cfi_def_cfa_offset 16
  85:Src/tim.c     ****   TIM_MasterConfigTypeDef sMasterConfig;
  86:Src/tim.c     **** 
  87:Src/tim.c     ****   htim7.Instance = TIM7;
 123              		.loc 1 87 0
 124 0004 1048     		ldr	r0, .L15
 125 0006 114B     		ldr	r3, .L15+4
 126 0008 0360     		str	r3, [r0]
  88:Src/tim.c     ****   htim7.Init.Prescaler = 159;
 127              		.loc 1 88 0
 128 000a 9F23     		movs	r3, #159
 129 000c 4360     		str	r3, [r0, #4]
  89:Src/tim.c     ****   htim7.Init.CounterMode = TIM_COUNTERMODE_UP;
 130              		.loc 1 89 0
 131 000e 0023     		movs	r3, #0
 132 0010 8360     		str	r3, [r0, #8]
  90:Src/tim.c     ****   htim7.Init.Period = 99;
 133              		.loc 1 90 0
 134 0012 6323     		movs	r3, #99
 135 0014 C360     		str	r3, [r0, #12]
  91:Src/tim.c     ****   if (HAL_TIM_Base_Init(&htim7) != HAL_OK)
 136              		.loc 1 91 0
 137 0016 FFF7FEFF 		bl	HAL_TIM_Base_Init
 138              	.LVL4:
ARM GAS  C:\Users\svcgu\AppData\Local\Temp\ccJVql4f.s 			page 5


 139 001a 50B9     		cbnz	r0, .L13
 140              	.L10:
  92:Src/tim.c     ****   {
  93:Src/tim.c     ****     _Error_Handler(__FILE__, __LINE__);
  94:Src/tim.c     ****   }
  95:Src/tim.c     **** 
  96:Src/tim.c     ****   sMasterConfig.MasterOutputTrigger = TIM_TRGO_RESET;
 141              		.loc 1 96 0
 142 001c 0023     		movs	r3, #0
 143 001e 0093     		str	r3, [sp]
  97:Src/tim.c     ****   sMasterConfig.MasterSlaveMode = TIM_MASTERSLAVEMODE_DISABLE;
 144              		.loc 1 97 0
 145 0020 0193     		str	r3, [sp, #4]
  98:Src/tim.c     ****   if (HAL_TIMEx_MasterConfigSynchronization(&htim7, &sMasterConfig) != HAL_OK)
 146              		.loc 1 98 0
 147 0022 6946     		mov	r1, sp
 148 0024 0848     		ldr	r0, .L15
 149 0026 FFF7FEFF 		bl	HAL_TIMEx_MasterConfigSynchronization
 150              	.LVL5:
 151 002a 38B9     		cbnz	r0, .L14
 152              	.L9:
  99:Src/tim.c     ****   {
 100:Src/tim.c     ****     _Error_Handler(__FILE__, __LINE__);
 101:Src/tim.c     ****   }
 102:Src/tim.c     **** 
 103:Src/tim.c     **** }
 153              		.loc 1 103 0
 154 002c 03B0     		add	sp, sp, #12
 155              	.LCFI6:
 156              		.cfi_remember_state
 157              		.cfi_def_cfa_offset 4
 158              		@ sp needed
 159 002e 5DF804FB 		ldr	pc, [sp], #4
 160              	.L13:
 161              	.LCFI7:
 162              		.cfi_restore_state
  93:Src/tim.c     ****   }
 163              		.loc 1 93 0
 164 0032 5D21     		movs	r1, #93
 165 0034 0648     		ldr	r0, .L15+8
 166 0036 FFF7FEFF 		bl	_Error_Handler
 167              	.LVL6:
 168 003a EFE7     		b	.L10
 169              	.L14:
 100:Src/tim.c     ****   }
 170              		.loc 1 100 0
 171 003c 6421     		movs	r1, #100
 172 003e 0448     		ldr	r0, .L15+8
 173 0040 FFF7FEFF 		bl	_Error_Handler
 174              	.LVL7:
 175              		.loc 1 103 0
 176 0044 F2E7     		b	.L9
 177              	.L16:
 178 0046 00BF     		.align	2
 179              	.L15:
 180 0048 00000000 		.word	htim7
 181 004c 00140040 		.word	1073746944
ARM GAS  C:\Users\svcgu\AppData\Local\Temp\ccJVql4f.s 			page 6


 182 0050 00000000 		.word	.LC0
 183              		.cfi_endproc
 184              	.LFE125:
 186              		.section	.text.HAL_TIM_Base_MspInit,"ax",%progbits
 187              		.align	1
 188              		.global	HAL_TIM_Base_MspInit
 189              		.syntax unified
 190              		.thumb
 191              		.thumb_func
 192              		.fpu fpv4-sp-d16
 194              	HAL_TIM_Base_MspInit:
 195              	.LFB126:
 104:Src/tim.c     **** 
 105:Src/tim.c     **** void HAL_TIM_Base_MspInit(TIM_HandleTypeDef* tim_baseHandle)
 106:Src/tim.c     **** {
 196              		.loc 1 106 0
 197              		.cfi_startproc
 198              		@ args = 0, pretend = 0, frame = 8
 199              		@ frame_needed = 0, uses_anonymous_args = 0
 200              	.LVL8:
 201 0000 00B5     		push	{lr}
 202              	.LCFI8:
 203              		.cfi_def_cfa_offset 4
 204              		.cfi_offset 14, -4
 205 0002 83B0     		sub	sp, sp, #12
 206              	.LCFI9:
 207              		.cfi_def_cfa_offset 16
 107:Src/tim.c     **** 
 108:Src/tim.c     ****   if(tim_baseHandle->Instance==TIM6)
 208              		.loc 1 108 0
 209 0004 0368     		ldr	r3, [r0]
 210 0006 184A     		ldr	r2, .L23
 211 0008 9342     		cmp	r3, r2
 212 000a 05D0     		beq	.L21
 109:Src/tim.c     ****   {
 110:Src/tim.c     ****   /* USER CODE BEGIN TIM6_MspInit 0 */
 111:Src/tim.c     **** 
 112:Src/tim.c     ****   /* USER CODE END TIM6_MspInit 0 */
 113:Src/tim.c     ****     /* TIM6 clock enable */
 114:Src/tim.c     ****     __HAL_RCC_TIM6_CLK_ENABLE();
 115:Src/tim.c     **** 
 116:Src/tim.c     ****     /* TIM6 interrupt Init */
 117:Src/tim.c     ****     HAL_NVIC_SetPriority(TIM6_DAC_IRQn, 0, 0);
 118:Src/tim.c     ****     HAL_NVIC_EnableIRQ(TIM6_DAC_IRQn);
 119:Src/tim.c     ****   /* USER CODE BEGIN TIM6_MspInit 1 */
 120:Src/tim.c     **** 
 121:Src/tim.c     ****   /* USER CODE END TIM6_MspInit 1 */
 122:Src/tim.c     ****   }
 123:Src/tim.c     ****   else if(tim_baseHandle->Instance==TIM7)
 213              		.loc 1 123 0
 214 000c 174A     		ldr	r2, .L23+4
 215 000e 9342     		cmp	r3, r2
 216 0010 16D0     		beq	.L22
 217              	.LVL9:
 218              	.L17:
 124:Src/tim.c     ****   {
 125:Src/tim.c     ****   /* USER CODE BEGIN TIM7_MspInit 0 */
ARM GAS  C:\Users\svcgu\AppData\Local\Temp\ccJVql4f.s 			page 7


 126:Src/tim.c     **** 
 127:Src/tim.c     ****   /* USER CODE END TIM7_MspInit 0 */
 128:Src/tim.c     ****     /* TIM7 clock enable */
 129:Src/tim.c     ****     __HAL_RCC_TIM7_CLK_ENABLE();
 130:Src/tim.c     **** 
 131:Src/tim.c     ****     /* TIM7 interrupt Init */
 132:Src/tim.c     ****     HAL_NVIC_SetPriority(TIM7_IRQn, 0, 0);
 133:Src/tim.c     ****     HAL_NVIC_EnableIRQ(TIM7_IRQn);
 134:Src/tim.c     ****   /* USER CODE BEGIN TIM7_MspInit 1 */
 135:Src/tim.c     **** 
 136:Src/tim.c     ****   /* USER CODE END TIM7_MspInit 1 */
 137:Src/tim.c     ****   }
 138:Src/tim.c     **** }
 219              		.loc 1 138 0
 220 0012 03B0     		add	sp, sp, #12
 221              	.LCFI10:
 222              		.cfi_remember_state
 223              		.cfi_def_cfa_offset 4
 224              		@ sp needed
 225 0014 5DF804FB 		ldr	pc, [sp], #4
 226              	.LVL10:
 227              	.L21:
 228              	.LCFI11:
 229              		.cfi_restore_state
 230              	.LBB2:
 114:Src/tim.c     **** 
 231              		.loc 1 114 0
 232 0018 0021     		movs	r1, #0
 233 001a 0091     		str	r1, [sp]
 234 001c 144B     		ldr	r3, .L23+8
 235 001e 1A6C     		ldr	r2, [r3, #64]
 236 0020 42F01002 		orr	r2, r2, #16
 237 0024 1A64     		str	r2, [r3, #64]
 238 0026 1B6C     		ldr	r3, [r3, #64]
 239 0028 03F01003 		and	r3, r3, #16
 240 002c 0093     		str	r3, [sp]
 241 002e 009B     		ldr	r3, [sp]
 242              	.LBE2:
 117:Src/tim.c     ****     HAL_NVIC_EnableIRQ(TIM6_DAC_IRQn);
 243              		.loc 1 117 0
 244 0030 0A46     		mov	r2, r1
 245 0032 3620     		movs	r0, #54
 246              	.LVL11:
 247 0034 FFF7FEFF 		bl	HAL_NVIC_SetPriority
 248              	.LVL12:
 118:Src/tim.c     ****   /* USER CODE BEGIN TIM6_MspInit 1 */
 249              		.loc 1 118 0
 250 0038 3620     		movs	r0, #54
 251 003a FFF7FEFF 		bl	HAL_NVIC_EnableIRQ
 252              	.LVL13:
 253 003e E8E7     		b	.L17
 254              	.LVL14:
 255              	.L22:
 256              	.LBB3:
 129:Src/tim.c     **** 
 257              		.loc 1 129 0
 258 0040 0021     		movs	r1, #0
ARM GAS  C:\Users\svcgu\AppData\Local\Temp\ccJVql4f.s 			page 8


 259 0042 0191     		str	r1, [sp, #4]
 260 0044 0A4B     		ldr	r3, .L23+8
 261 0046 1A6C     		ldr	r2, [r3, #64]
 262 0048 42F02002 		orr	r2, r2, #32
 263 004c 1A64     		str	r2, [r3, #64]
 264 004e 1B6C     		ldr	r3, [r3, #64]
 265 0050 03F02003 		and	r3, r3, #32
 266 0054 0193     		str	r3, [sp, #4]
 267 0056 019B     		ldr	r3, [sp, #4]
 268              	.LBE3:
 132:Src/tim.c     ****     HAL_NVIC_EnableIRQ(TIM7_IRQn);
 269              		.loc 1 132 0
 270 0058 0A46     		mov	r2, r1
 271 005a 3720     		movs	r0, #55
 272              	.LVL15:
 273 005c FFF7FEFF 		bl	HAL_NVIC_SetPriority
 274              	.LVL16:
 133:Src/tim.c     ****   /* USER CODE BEGIN TIM7_MspInit 1 */
 275              		.loc 1 133 0
 276 0060 3720     		movs	r0, #55
 277 0062 FFF7FEFF 		bl	HAL_NVIC_EnableIRQ
 278              	.LVL17:
 279              		.loc 1 138 0
 280 0066 D4E7     		b	.L17
 281              	.L24:
 282              		.align	2
 283              	.L23:
 284 0068 00100040 		.word	1073745920
 285 006c 00140040 		.word	1073746944
 286 0070 00380240 		.word	1073887232
 287              		.cfi_endproc
 288              	.LFE126:
 290              		.section	.text.HAL_TIM_Base_MspDeInit,"ax",%progbits
 291              		.align	1
 292              		.global	HAL_TIM_Base_MspDeInit
 293              		.syntax unified
 294              		.thumb
 295              		.thumb_func
 296              		.fpu fpv4-sp-d16
 298              	HAL_TIM_Base_MspDeInit:
 299              	.LFB127:
 139:Src/tim.c     **** 
 140:Src/tim.c     **** void HAL_TIM_Base_MspDeInit(TIM_HandleTypeDef* tim_baseHandle)
 141:Src/tim.c     **** {
 300              		.loc 1 141 0
 301              		.cfi_startproc
 302              		@ args = 0, pretend = 0, frame = 0
 303              		@ frame_needed = 0, uses_anonymous_args = 0
 304              	.LVL18:
 305 0000 08B5     		push	{r3, lr}
 306              	.LCFI12:
 307              		.cfi_def_cfa_offset 8
 308              		.cfi_offset 3, -8
 309              		.cfi_offset 14, -4
 142:Src/tim.c     **** 
 143:Src/tim.c     ****   if(tim_baseHandle->Instance==TIM6)
 310              		.loc 1 143 0
ARM GAS  C:\Users\svcgu\AppData\Local\Temp\ccJVql4f.s 			page 9


 311 0002 0368     		ldr	r3, [r0]
 312 0004 0D4A     		ldr	r2, .L31
 313 0006 9342     		cmp	r3, r2
 314 0008 03D0     		beq	.L29
 144:Src/tim.c     ****   {
 145:Src/tim.c     ****   /* USER CODE BEGIN TIM6_MspDeInit 0 */
 146:Src/tim.c     **** 
 147:Src/tim.c     ****   /* USER CODE END TIM6_MspDeInit 0 */
 148:Src/tim.c     ****     /* Peripheral clock disable */
 149:Src/tim.c     ****     __HAL_RCC_TIM6_CLK_DISABLE();
 150:Src/tim.c     **** 
 151:Src/tim.c     ****     /* TIM6 interrupt Deinit */
 152:Src/tim.c     ****     HAL_NVIC_DisableIRQ(TIM6_DAC_IRQn);
 153:Src/tim.c     ****   /* USER CODE BEGIN TIM6_MspDeInit 1 */
 154:Src/tim.c     **** 
 155:Src/tim.c     ****   /* USER CODE END TIM6_MspDeInit 1 */
 156:Src/tim.c     ****   }
 157:Src/tim.c     ****   else if(tim_baseHandle->Instance==TIM7)
 315              		.loc 1 157 0
 316 000a 0D4A     		ldr	r2, .L31+4
 317 000c 9342     		cmp	r3, r2
 318 000e 0AD0     		beq	.L30
 319              	.LVL19:
 320              	.L25:
 321 0010 08BD     		pop	{r3, pc}
 322              	.LVL20:
 323              	.L29:
 149:Src/tim.c     **** 
 324              		.loc 1 149 0
 325 0012 02F50A32 		add	r2, r2, #141312
 326 0016 136C     		ldr	r3, [r2, #64]
 327 0018 23F01003 		bic	r3, r3, #16
 328 001c 1364     		str	r3, [r2, #64]
 152:Src/tim.c     ****   /* USER CODE BEGIN TIM6_MspDeInit 1 */
 329              		.loc 1 152 0
 330 001e 3620     		movs	r0, #54
 331              	.LVL21:
 332 0020 FFF7FEFF 		bl	HAL_NVIC_DisableIRQ
 333              	.LVL22:
 334 0024 08BD     		pop	{r3, pc}
 335              	.LVL23:
 336              	.L30:
 158:Src/tim.c     ****   {
 159:Src/tim.c     ****   /* USER CODE BEGIN TIM7_MspDeInit 0 */
 160:Src/tim.c     **** 
 161:Src/tim.c     ****   /* USER CODE END TIM7_MspDeInit 0 */
 162:Src/tim.c     ****     /* Peripheral clock disable */
 163:Src/tim.c     ****     __HAL_RCC_TIM7_CLK_DISABLE();
 337              		.loc 1 163 0
 338 0026 02F50932 		add	r2, r2, #140288
 339 002a 136C     		ldr	r3, [r2, #64]
 340 002c 23F02003 		bic	r3, r3, #32
 341 0030 1364     		str	r3, [r2, #64]
 164:Src/tim.c     **** 
 165:Src/tim.c     ****     /* TIM7 interrupt Deinit */
 166:Src/tim.c     ****     HAL_NVIC_DisableIRQ(TIM7_IRQn);
 342              		.loc 1 166 0
ARM GAS  C:\Users\svcgu\AppData\Local\Temp\ccJVql4f.s 			page 10


 343 0032 3720     		movs	r0, #55
 344              	.LVL24:
 345 0034 FFF7FEFF 		bl	HAL_NVIC_DisableIRQ
 346              	.LVL25:
 167:Src/tim.c     ****   /* USER CODE BEGIN TIM7_MspDeInit 1 */
 168:Src/tim.c     **** 
 169:Src/tim.c     ****   /* USER CODE END TIM7_MspDeInit 1 */
 170:Src/tim.c     ****   }
 171:Src/tim.c     **** } 
 347              		.loc 1 171 0
 348 0038 EAE7     		b	.L25
 349              	.L32:
 350 003a 00BF     		.align	2
 351              	.L31:
 352 003c 00100040 		.word	1073745920
 353 0040 00140040 		.word	1073746944
 354              		.cfi_endproc
 355              	.LFE127:
 357              		.comm	htim7,60,4
 358              		.comm	htim6,60,4
 359              		.section	.rodata.MX_TIM6_Init.str1.4,"aMS",%progbits,1
 360              		.align	2
 361              	.LC0:
 362 0000 5372632F 		.ascii	"Src/tim.c\000"
 362      74696D2E 
 362      6300
 363              		.text
 364              	.Letext0:
 365              		.file 2 "c:\\program files (x86)\\gnu tools arm embedded\\6 2017-q2-update\\arm-none-eabi\\include
 366              		.file 3 "c:\\program files (x86)\\gnu tools arm embedded\\6 2017-q2-update\\arm-none-eabi\\include
 367              		.file 4 "Drivers/CMSIS/Include/core_cm4.h"
 368              		.file 5 "Drivers/CMSIS/Device/ST/STM32F4xx/Include/system_stm32f4xx.h"
 369              		.file 6 "Drivers/CMSIS/Device/ST/STM32F4xx/Include/stm32f407xx.h"
 370              		.file 7 "c:\\program files (x86)\\gnu tools arm embedded\\6 2017-q2-update\\arm-none-eabi\\include
 371              		.file 8 "c:\\program files (x86)\\gnu tools arm embedded\\6 2017-q2-update\\arm-none-eabi\\include
 372              		.file 9 "c:\\program files (x86)\\gnu tools arm embedded\\6 2017-q2-update\\lib\\gcc\\arm-none-eab
 373              		.file 10 "c:\\program files (x86)\\gnu tools arm embedded\\6 2017-q2-update\\arm-none-eabi\\includ
 374              		.file 11 "Drivers/STM32F4xx_HAL_Driver/Inc/stm32f4xx_hal_def.h"
 375              		.file 12 "Drivers/STM32F4xx_HAL_Driver/Inc/stm32f4xx_hal_dma.h"
 376              		.file 13 "Drivers/STM32F4xx_HAL_Driver/Inc/stm32f4xx_hal_tim.h"
 377              		.file 14 "Drivers/STM32F4xx_HAL_Driver/Inc/stm32f4xx_hal_tim_ex.h"
 378              		.file 15 "Inc/tim.h"
 379              		.file 16 "Drivers/STM32F4xx_HAL_Driver/Inc/stm32f4xx_hal_cortex.h"
ARM GAS  C:\Users\svcgu\AppData\Local\Temp\ccJVql4f.s 			page 11

